(dp1
S'four'
p2
I53
sS'preface'
p3
I478
sS'lenci'
p4
I4
sS'looking'
p5
I75
sS'electricity'
p6
I484
sS'lord'
p7
I1
sS'propane'
p8
I9
sS'regional'
p9
I77
sS'dell'
p10
I60
sS'uoft'
p11
I5
sS'rawhide'
p12
I13
sS'basics'
p13
I43
sS'cashout'
p14
I38
sS'wednesday'
p15
I284
sS'straight'
p16
I32
sS'charter'
p17
I2
sS'miller'
p18
I28
sS'daren'
p19
I19
sS'odpowiedzi'
p20
I6
sS'second'
p21
I93
sS'errors'
p22
I36
sS'ruthless'
p23
I4
sS'lmp'
p24
I18
sS'bonuses'
p25
I46
sS'redelivered'
p26
I23
sS'increasing'
p27
I37
sS'agreement'
p28
I1212
sS'here'
p29
I414
sS'981225'
p30
I100
sS'k'
I449
sS'reports'
p31
I192
sS'nomiantion'
p32
I3
sS'cancellation'
p33
I84
sS'brownsville'
p34
I10
sS'divide'
p35
I97
sS'brought'
p36
I42
sS'unix'
p37
I5
sS'txu'
p38
I381
sS'txt'
p39
I8
sS'univ'
p40
I8
sS'unit'
p41
I375
sS'cogen'
p42
I21
sS'derivatives'
p43
I1020
sS'roundtables'
p44
I38
sS'spoke'
p45
I27
sS'tardiness'
p46
I22
sS'hayslett'
p47
I44
sS'junel'
p48
I167
sS'music'
p49
I35
sS'until'
p50
I25
sS'expiring'
p51
I124
sS'yahoo'
p52
I41
sS'99'
p53
I1304
sS'98'
p54
I814
sS'90'
p55
I8
sS'hold'
p56
I42
sS'97'
p57
I122
sS'contstraints'
p58
I17
sS'enrondirectfinance'
p59
I16
sS'example'
p60
I5
sS'breese'
p61
I20
sS'987012'
p62
I7
sS'organized'
p63
I22
sS'currency'
p64
I40
sS'want'
p65
I96
sS'unpaid'
p66
I56
sS'travel'
p67
I96
sS'machine'
p68
I386
sS'how'
p69
I271
sS'hot'
p70
I190
sS'hou'
p71
I19
sS'frontrea'
p72
I4
sS'symposium'
p73
I350
sS'gaming'
p74
I40
sS'diagram'
p75
I5
sS'wrong'
p76
I29
sS'quips'
p77
I102
sS'destined'
p78
I1
sS'powerisk'
p79
I340
sS'types'
p80
I35
sS'turnovers'
p81
I54
sS'vance'
p82
I31
sS'effective'
p83
I762
sS'wind'
p84
I69
sS'feedback'
p85
I1189
sS'telecom'
p86
I37
sS'matsumoto'
p87
I25
sS'barclays'
p88
I6
sS'8018'
p89
I167
sS'109660'
p90
I19
sS'fit'
p91
I1
sS'rankings'
p92
I80
sS'fix'
p93
I2
sS'fin'
p94
I6
sS'slate'
p95
I9
sS'accrual'
p96
I48
sS'enrico'
p97
I179
sS'inactivations'
p98
I87
sS'schools'
p99
I48
sS'tyle'
p100
I7
sS'financial'
p101
I440
sS'series'
p102
I685
sS'92886'
p103
I5
sS'contracting'
p104
I24
sS'mds'
p105
I5
sS'mdq'
p106
I7
sS'ring'
p107
I30
sS'rw'
p108
I40
sS'sms'
p109
I15
sS'riskbrief'
p110
I55
sS'cpuc'
p111
I55
sS'rd'
p112
I838
sS're'
p113
I95766
sS'smi'
p114
I32
sS'rc'
p115
I128
sS'ro'
p116
I63
sS'usaee'
p117
I35
sS'5848'
p118
I45
sS'foundation'
p119
I37
sS'dewpoint'
p120
I19
sS'given'
p121
I3
sS'platnosci'
p122
I10
sS'estimate'
p123
I347
sS'shipper'
p124
I4
sS'gershenson'
p125
I72
sS'atm'
p126
I1
sS'hesse'
p127
I4
sS'silicon'
p128
I33
sS'ats'
p129
I44
sS'carryover'
p130
I54
sS'vitro'
p131
I147
sS'wash'
p132
I12
sS'llodra'
p133
I6
sS'chevron'
p134
I201
sS'basketball'
p135
I18
sS'service'
p136
I428
sS'forrester'
p137
I8
sS'schenck'
p138
I17
sS'engagement'
p139
I155
sS'needed'
p140
I675
sS'master'
p141
I441
sS'listed'
p142
I16
sS'gilbert'
p143
I16
sS'hewitt'
p144
I33
sS'doehrman'
p145
I19
sS'mckinsey'
p146
I46
sS'task'
p147
I33
sS'sycamore'
p148
I220
sS'tree'
p149
I24
sS'rusty'
p150
I100
sS'project'
p151
I2693
sS'acquisition'
p152
I57
sS'boston'
p153
I253
sS'9750'
p154
I3
sS'affairs'
p155
I145
sS'releases'
p156
I35
sS'responsible'
p157
I9
sS'transactions'
p158
I10
sS'sugarcane'
p159
I35
sS'wells'
p160
I140
sS'victoria'
p161
I68
sS'metrics'
p162
I579
sS'cummings'
p163
I52
sS'letter'
p164
I502
sS'antitrust'
p165
I5
sS'professor'
p166
I348
sS'preranking'
p167
I2
sS'memberships'
p168
I27
sS'teco'
p169
I371
sS'tech'
p170
I76
sS'lpg'
p171
I30
sS'advisory'
p172
I224
sS'departing'
p173
I10
sS'meetings'
p174
I679
sS'nominated'
p175
I1
sS'0984179'
p176
I45
sS'reschedule'
p177
I29
sS'participate'
p178
I23
sS'chnage'
p179
I25
sS'lessons'
p180
I30
sS'layout'
p181
I15
sS'louise'
p182
I1163
sS'quaint'
p183
I8
sS'bust'
p184
I9
sS'than'
p185
I3
sS'rick'
p186
I113
sS'rice'
p187
I561
sS'clinchard'
p188
I3
sS'lenders'
p189
I27
sS'tips'
p190
I18
sS'volatility'
p191
I71
sS'meruit'
p192
I34
sS'copanop'
p193
I9
sS'copanos'
p194
I27
sS'greene'
p195
I97
sS'cokinos'
p196
I39
sS'release'
p197
I1317
sS'respond'
p198
I24
sS'fair'
p199
I158
sS'branding'
p200
I49
sS'nolly'
p201
I2
sS'result'
p202
I42
sS'foss'
p203
I148
sS'best'
p204
I99
sS'rings'
p205
I1
sS'pressures'
p206
I37
sS'score'
p207
I4
sS'timesheets'
p208
I96
sS'lamar'
p209
I3
sS'never'
p210
I5
sS'manabu'
p211
I25
sS'extend'
p212
I11
sS'syncrude'
p213
I22
sS'lamay'
p214
I36
sS'drew'
p215
I13
sS'wti'
p216
I209
sS'debt'
p217
I25
sS'country'
p218
I86
sS'planned'
p219
I26
sS'resending'
p220
I62
sS'login'
p221
I19
sS'asked'
p222
I75
sS'and'
p223
I11734
sS'brindle'
p224
I13
sS'organisational'
p225
I87
sS'giancola'
p226
I55
sS'bogdan'
p227
I75
sS'billing'
p228
I160
sS'holdings'
p229
I40
sS'fri'
p230
I26
sS'subsidy'
p231
I32
sS'mitigation'
p232
I18
sS'wyman'
p233
I20
sS'life'
p234
I6
sS'eastern'
p235
I219
sS'calger'
p236
I9
sS'dave'
p237
I190
sS'lift'
p238
I30
sS'chile'
p239
I12
sS'child'
p240
I33
sS'worked'
p241
I15
sS'spin'
p242
I1
sS'diverted'
p243
I27
sS'commerce'
p244
I56
sS'scorecard'
p245
I6
sS'easter'
p246
I7
sS'contingencies'
p247
I41
sS'0071'
p248
I4
sS'cutshall'
p249
I16
sS'eastrans'
p250
I957
sS'things'
p251
I108
sS'equistar'
p252
I449
sS'damages'
p253
I6
sS'rebound'
p254
I40
sS'european'
p255
I331
sS'templates'
p256
I2
sS'tops'
p257
I538
sS'workforce'
p258
I10
sS'topn'
p259
I8
sS'josey'
p260
I184
sS'boiler'
p261
I7
sS'ownership'
p262
I2
sS'yamen'
p263
I20
sS'cdnow'
p264
I230
sS'semora'
p265
I39
sS'academic'
p266
I23
sS'redeliveries'
p267
I19
sS'simulated'
p268
I42
sS'quantitative'
p269
I97
sS'corporate'
p270
I320
sS'waha'
p271
I175
sS'gtcs'
p272
I113
sS'plight'
p273
I82
sS'72893'
p274
I56
sS'previous'
p275
I74
sS'bny'
p276
I2
sS'hao'
p277
I22
sS'arnaez'
p278
I2
sS'bnp'
p279
I38
sS'had'
p280
I20
sS'collections'
p281
I9
sS'bnycp'
p282
I41
sS'has'
p283
I298
sS'pathstar'
p284
I219
sS'municipal'
p285
I19
sS'osman'
p286
I28
sS'elders'
p287
I77
sS'1156'
p288
I9
sS'possible'
p289
I487
sS'posey'
p290
I58
sS'birth'
p291
I46
sS'789355'
p292
I5
sS'steps'
p293
I102
sS'ola'
p294
I8
sS'attorney'
p295
I193
sS'right'
p296
I98
sS'old'
p297
I134
sS'creek'
p298
I202
sS'people'
p299
I13
sS'crown'
p300
I18
sS'consultants'
p301
I17
sS'ols'
p302
I27
sS'attendees'
p303
I107
sS'for'
p304
I20358
sS'bottom'
p305
I27
sS'continue'
p306
I18
sS'umb'
p307
I1
sS'stingray'
p308
I35
sS'981594'
p309
I15
sS'rhone'
p310
I6
sS'brokerage'
p311
I4
sS'marketers'
p312
I2
sS'faltinsen'
p313
I32
sS'o'
I431
sS'slightly'
p314
I3
sS'fundies'
p315
I2
sS'consulting'
p316
I232
sS'statements'
p317
I3
sS'facility'
p318
I8
sS'marshall'
p319
I62
sS'rotations'
p320
I42
sS'mba'
p321
I339
sS'son'
p322
I77
sS'sos'
p323
I66
sS'sow'
p324
I6
sS'sox'
p325
I8
sS'support'
p326
I619
sS'overhang'
p327
I49
sS'happy'
p328
I227
sS'offer'
p329
I189
sS'tigers'
p330
I21
sS'verde'
p331
I4
sS'incorporation'
p332
I16
sS'2186'
p333
I7
sS'congratulations'
p334
I145
sS'polska'
p335
I217
sS'kohli'
p336
I80
sS'panels'
p337
I42
sS'examples'
p338
I114
sS'150'
p339
I48
sS'juvenile'
p340
I37
sS'155'
p341
I1
sS'tournament'
p342
I31
sS'roseville'
p343
I11
sS'accounting'
p344
I296
sS'solicitation'
p345
I105
sS'zapata'
p346
I115
sS'dotted'
p347
I32
sS'floor'
p348
I774
sS'flood'
p349
I12
sS'pasadena'
p350
I45
sS'role'
p351
I61
sS'roll'
p352
I102
sS'intend'
p353
I32
sS'models'
p354
I120
sS'outage'
p355
I295
sS'devon'
p356
I124
sS'rolling'
p357
I3
sS'meteorologist'
p358
I20
sS'reorganization'
p359
I35
sS'packets'
p360
I7
sS'filing'
p361
I53
sS'time'
p362
I656
sS'push'
p363
I1
sS'chain'
p364
I27
sS'reviewers'
p365
I39
sS'activated'
p366
I19
sS'chair'
p367
I88
sS'suspending'
p368
I5
sS'notis'
p369
I10
sS'lrc'
p370
I6
sS'nomed'
p371
I21
sS'choice'
p372
I3
sS'wharton'
p373
I1432
sS'stays'
p374
I4
sS'exact'
p375
I3
sS'minute'
p376
I21
sS'leave'
p377
I3
sS'solved'
p378
I3
sS'settle'
p379
I137
sS'team'
p380
I805
sS'prevent'
p381
I10
sS'findings'
p382
I21
sS'sign'
p383
I153
sS'3026'
p384
I81
sS'goldston'
p385
I4
sS'current'
p386
I190
sS'drafted'
p387
I3
sS'jury'
p388
I18
sS'lange'
p389
I104
sS'fimat'
p390
I8
sS'understanding'
p391
I72
sS'address'
p392
I352
sS'enroll'
p393
I42
sS'impacted'
p394
I45
sS'589257'
p395
I5
sS'myers'
p396
I44
sS'studies'
p397
I100
sS'engineer'
p398
I7
sS'love'
p399
I2
sS'confidentiality'
p400
I64
sS'ipe'
p401
I4
sS'ipp'
p402
I105
sS'nacogodoches'
p403
I46
sS'working'
p404
I297
sS'positive'
p405
I226
sS'lenos'
p406
I42
sS'introducing'
p407
I167
sS'ua'
p408
I204
sS'cplex'
p409
I201
sS'sierra'
p410
I6
sS'413652'
p411
I3
sS'bharati'
p412
I10
sS'behalf'
p413
I6
sS'rutherford'
p414
I8
sS'intergation'
p415
I49
sS'vega'
p416
I21
sS'values'
p417
I303
sS'following'
p418
I376
sS'admired'
p419
I32
sS'delfeld'
p420
I21
sS'231'
p421
I12
sS'agendas'
p422
I28
sS'winter'
p423
I130
sS'parameter'
p424
I10
sS'petrochem'
p425
I106
sS'spot'
p426
I743
sS'improving'
p427
I38
sS'revealed'
p428
I88
sS'stress'
p429
I97
sS'natural'
p430
I451
sS'sandeep'
p431
I80
sS'ss'
p432
I11
sS'sp'
p433
I7
sS'su'
p434
I62
sS'st'
p435
I379
sS'so'
p436
I213
sS'sl'
p437
I72
sS'sa'
p438
I18
sS'sg'
p439
I5
sS'sf'
p440
I17
sS'se'
p441
I71
sS'098'
p442
I170
sS'beaumont'
p443
I362
sS'years'
p444
I9
sS'professors'
p445
I73
sS'structuring'
p446
I126
sS'unfavorable'
p447
I4
sS'jim'
p448
I61
sS'methodology'
p449
I71
sS'rodessa'
p450
I171
sS'playback'
p451
I61
sS'suspicion'
p452
I3
sS'derivs'
p453
I17
sS'suspension'
p454
I33
sS'petition'
p455
I23
sS'origination'
p456
I387
sS'985077'
p457
I56
sS'course'
p458
I910
sS'drilling'
p459
I133
sS'sorted'
p460
I1
sS'maintaining'
p461
I57
sS'quarter'
p462
I183
sS'square'
p463
I32
sS'exelon'
p464
I29
sS'revised'
p465
I1562
sS'videoconferences'
p466
I65
sS'abide'
p467
I15
sS'internet'
p468
I224
sS'suggesting'
p469
I3
sS'million'
p470
I15
sS'0989814'
p471
I135
sS'grandma'
p472
I31
sS'pleo'
p473
I34
sS'gilts'
p474
I15
sS'programming'
p475
I91
sS'driscoll'
p476
I92
sS'gordon'
p477
I125
sS'timelines'
p478
I34
sS'spoken'
p479
I19
sS'knudsen'
p480
I111
sS'one'
p481
I360
sS'986631'
p482
I20
sS'spanish'
p483
I27
sS'vote'
p484
I19
sS'ons'
p485
I13
sS'open'
p486
I271
sS'city'
p487
I212
sS'citi'
p488
I72
sS'2'
I4465
sS'draft'
p489
I741
sS'riskfree'
p490
I44
sS'bits'
p491
I18
sS'williams'
p492
I332
sS'fma'
p493
I173
sS'mtbe'
p494
I31
sS'inventor'
p495
I40
sS'geaccone'
p496
I44
sS'future'
p497
I269
sS'prospect'
p498
I56
sS'san'
p499
I247
sS'sam'
p500
I29
sS'locations'
p501
I41
sS'say'
p502
I26
sS'sas'
p503
I15
sS'allen'
p504
I85
sS'sap'
p505
I130
sS'sat'
p506
I7
sS'note'
p507
I285
sS'take'
p508
I195
sS'gibner'
p509
I18
sS'printer'
p510
I102
sS'buffet'
p511
I2
sS'evaluator'
p512
I118
sS'pager'
p513
I15
sS'eprm'
p514
I919
sS'average'
p515
I23
sS'phil'
p516
I56
sS'drive'
p517
I8
sS'occidental'
p518
I10
sS'crawfish'
p519
I51
sS'atlantic'
p520
I27
sS'salt'
p521
I5
sS'liquidity'
p522
I112
sS'cobra'
p523
I3
sS'surplus'
p524
I36
sS'dyplomowa'
p525
I83
sS'merit'
p526
I48
sS'analyis'
p527
I7
sS'merlin'
p528
I15
sS'reconciling'
p529
I28
sS'going'
p530
I44
sS'texmex'
p531
I20
sS'xms'
p532
I90
sS'digitize'
p533
I24
sS'assistant'
p534
I30
sS'prime'
p535
I115
sS'assimilate'
p536
I5
sS'ahmad'
p537
I28
sS'parkhill'
p538
I33
sS'liable'
p539
I2
sS'where'
p540
I145
sS'vision'
p541
I4
sS'marnie'
p542
I8
sS'vidor'
p543
I16
sS'interruptible'
p544
I72
sS'xclmdz'
p545
I58
sS'surgery'
p546
I17
sS'avails'
p547
I127
sS'sites'
p548
I13
sS'sponsorship'
p549
I129
sS'texlan'
p550
I5
sS'percentiles'
p551
I34
sS'bureau'
p552
I126
sS'affecting'
p553
I22
sS'shankman'
p554
I13
sS'logins'
p555
I3
sS'screen'
p556
I32
sS'clayton'
p557
I71
sS'awards'
p558
I9
sS'108672'
p559
I8
sS'quack'
p560
I3
sS'thamm'
p561
I14
sS'many'
p562
I75
sS's'
I8813
sS'mann'
p563
I25
sS'drogi'
p564
I7
sS'ubswe'
p565
I14
sS'ante'
p566
I97
sS'boat'
p567
I13
sS'west'
p568
I290
sS'1581'
p569
I4
sS'vacation'
p570
I570
sS'breckenridge'
p571
I6
sS'wants'
p572
I62
sS'quarantined'
p573
I12
sS'gisb'
p574
I130
sS'former'
p575
I20
sS'misnomination'
p576
I7
sS'sommers'
p577
I44
sS'consultant'
p578
I118
sS'pennzoil'
p579
I24
sS'newspaper'
p580
I22
sS'situation'
p581
I152
sS'blay'
p582
I37
sS'aluminium'
p583
I48
sS'technology'
p584
I36
sS'expenditures'
p585
I10
sS'defs'
p586
I77
sS'wires'
p587
I33
sS'seyfried'
p588
I70
sS'allocation'
p589
I744
sS'harris'
p590
I198
sS'6736'
p591
I11
sS'mothballed'
p592
I3
sS'lehrer'
p593
I14
sS'tracking'
p594
I40
sS'demandin'
p595
I58
sS'costs'
p596
I44
sS'216'
p597
I26
sS'summer'
p598
I3378
sS'215'
p599
I6
sS'213'
p600
I264
sS'lockyer'
p601
I69
sS'resp'
p602
I18
sS'rest'
p603
I16
sS'divestitures'
p604
I9
sS'weekly'
p605
I2502
sS'9801071'
p606
I14
sS'dabhol'
p607
I130
sS'supatgiat'
p608
I7
sS'generator'
p609
I59
sS'ecogas'
p610
I21
sS'pastoria'
p611
I115
sS'around'
p612
I29
sS'dutt'
p613
I9
sS'coserv'
p614
I8
sS'world'
p615
I230
sS'646679'
p616
I5
sS'cowtrap'
p617
I18
sS'cfos'
p618
I53
sS'rachael'
p619
I22
sS'clay'
p620
I55
sS'inter'
p621
I20
sS'seating'
p622
I19
sS'5018'
p623
I5
sS'premlinary'
p624
I5
sS'brits'
p625
I16
sS'dfarmer'
p626
I7
sS'thinks'
p627
I3
sS'memories'
p628
I41
sS'noon'
p629
I3
sS'hickerson'
p630
I167
sS'seaman'
p631
I6
sS'916'
p632
I2
sS'timekeeper'
p633
I9
sS'power'
p634
I4537
sS'internship'
p635
I1443
sS'leadership'
p636
I141
sS'standpoint'
p637
I2
sS'package'
p638
I106
sS'act'
p639
I43
sS'other'
p640
I75
sS'fundraising'
p641
I37
sS'image'
p642
I2
sS'ibuyit'
p643
I319
sS'parties'
p644
I43
sS'pivot'
p645
I41
sS'her'
p646
I2
sS'bookcases'
p647
I3
sS'hey'
p648
I15
sS'hea'
p649
I117
sS'brazilian'
p650
I42
sS'duffie'
p651
I12
sS'384247'
p652
I84
sS'complete'
p653
I9
sS'writeups'
p654
I45
sS'implies'
p655
I9
sS'with'
p656
I4252
sS'rusk'
p657
I66
sS'october'
p658
I897
sS'unveils'
p659
I61
sS'prosrm'
p660
I21
sS'vasant'
p661
I22
sS'detailed'
p662
I25
sS'gone'
p663
I13
sS'ag'
p664
I43
sS'am'
p665
I862
sS'al'
p666
I16
sS'an'
p667
I817
sS'fiala'
p668
I5
sS'ap'
p669
I15
sS'as'
p670
I724
sS'ar'
p671
I75
sS'at'
p672
I6094
sS'sitara'
p673
I1240
sS'jargon'
p674
I37
sS'318052'
p675
I12
sS'ideally'
p676
I3
sS'drafts'
p677
I78
sS'novice'
p678
I42
sS'graduate'
p679
I264
sS'1441'
p680
I47
sS'sangwine'
p681
I14
sS'karthik'
p682
I80
sS'congress'
p683
I125
sS'annex'
p684
I23
sS'walker'
p685
I52
sS'terry'
p686
I70
sS'gillis'
p687
I113
sS'rosalyn'
p688
I8
sS'cpm'
p689
I144
sS'cpn'
p690
I6
sS'hello'
p691
I3323
sS'nelson'
p692
I28
sS'6788'
p693
I6
sS'cpr'
p694
I54
sS'cps'
p695
I48
sS'original'
p696
I46
sS'consider'
p697
I4
sS'beware'
p698
I5
sS'causey'
p699
I107
sS'mna'
p700
I10
sS'causes'
p701
I7
sS'tx'
p702
I223
sS'ty'
p703
I7
sS'tv'
p704
I83
sS'tw'
p705
I34
sS'tt'
p706
I13
sS'restraining'
p707
I3
sS'104210'
p708
I9
sS'ts'
p709
I4
sS'to'
p710
I14338
sS'tail'
p711
I13
sS'tm'
p712
I35
sS'alvarez'
p713
I8
sS'finansowa'
p714
I25
sS'th'
p715
I3818
sS'smile'
p716
I17
sS'homepage'
p717
I34
sS'ta'
p718
I11
sS'appointment'
p719
I20
sS'returned'
p720
I12
sS'interpreting'
p721
I3
sS'elena'
p722
I15
sS'condition'
p723
I5
sS'pbs'
p724
I5
sS'small'
p725
I44
sS'enpower'
p726
I12
sS'highstar'
p727
I195
sS'198'
p728
I11
sS'paso'
p729
I354
sS'past'
p730
I18
sS'pass'
p731
I41
sS'investment'
p732
I234
sS'section'
p733
I23
sS'tanya'
p734
I106
sS'spaniolo'
p735
I26
sS'method'
p736
I4
sS'hasn'
p737
I23
sS'full'
p738
I432
sS'hours'
p739
I274
sS'11871528'
p740
I37
sS'november'
p741
I1016
sS'compliance'
p742
I45
sS'experience'
p743
I54
sS'prior'
p744
I13
sS'curtailment'
p745
I58
sS'action'
p746
I548
sS'via'
p747
I184
sS'retroactive'
p748
I16
sS'lubrizol'
p749
I34
sS'reorg'
p750
I11
sS'kgpl'
p751
I20
sS'pathing'
p752
I15
sS'select'
p753
I61
sS'orientation'
p754
I15
sS'patteson'
p755
I40
sS'attendance'
p756
I219
sS'freese'
p757
I10
sS'objectives'
p758
I55
sS'petroleum'
p759
I103
sS'0980438'
p760
I106
sS'automate'
p761
I18
sS'6'
I1942
sS'poule'
p762
I6
sS'more'
p763
I863
sS'company'
p764
I1249
sS'corrected'
p765
I76
sS'emission'
p766
I48
sS'keeping'
p767
I50
sS'kaminski'
p768
I3572
sS'science'
p769
I16
sS'midstream'
p770
I155
sS'testiing'
p771
I12
sS'resources'
p772
I514
sS'morgan'
p773
I58
sS'changeover'
p774
I34
sS'prompt'
p775
I91
sS'suggestions'
p776
I192
sS'dress'
p777
I35
sS'information'
p778
I2455
sS'respective'
p779
I84
sS'interconnect'
p780
I207
sS'earnings'
p781
I151
sS'plant'
p782
I380
sS'plans'
p783
I179
sS'mapping'
p784
I34
sS'entrepreneurship'
p785
I37
sS'plane'
p786
I53
sS'evaluations'
p787
I219
sS'acquisitions'
p788
I76
sS'thought'
p789
I376
sS'resemble'
p790
I5
sS'register'
p791
I219
sS'volleyball'
p792
I5
sS'geographic'
p793
I7
sS'replied'
p794
I102
sS'trade'
p795
I1188
sS'paper'
p796
I497
sS'scott'
p797
I78
sS'signs'
p798
I16
sS'westex'
p799
I8
sS'turbine'
p800
I418
sS'its'
p801
I115
sS'formosa'
p802
I79
sS'colleague'
p803
I30
sS'motley'
p804
I61
sS'propose'
p805
I100
sS'6719'
p806
I95
sS'jorion'
p807
I22
sS'always'
p808
I4
sS'courses'
p809
I280
sS'authorisation'
p810
I4
sS'unmetered'
p811
I102
sS'reactions'
p812
I306
sS'spinnaker'
p813
I146
sS'england'
p814
I100
sS'measurement'
p815
I12
sS'really'
p816
I9
sS'ftr'
p817
I7
sS'ernie'
p818
I52
sS'research'
p819
I5748
sS'fte'
p820
I7
sS'offline'
p821
I56
sS'lutz'
p822
I9
sS'vac'
p823
I2
sS'paesanos'
p824
I21
sS'tricoli'
p825
I56
sS'proxy'
p826
I20
sS'livelink'
p827
I137
sS'trevino'
p828
I30
sS'producers'
p829
I133
sS'owners'
p830
I18
sS'offsite'
p831
I507
sS'w'
I362
sS'sanjeev'
p832
I24
sS'contingency'
p833
I61
sS'number'
p834
I246
sS'preservation'
p835
I66
sS'4438'
p836
I3
sS'guess'
p837
I11
sS'heads'
p838
I98
sS'guest'
p839
I205
sS'introduction'
p840
I141
sS'noms'
p841
I1171
sS'zealot'
p842
I34
sS'molecular'
p843
I28
sS'relationship'
p844
I31
sS'interviewed'
p845
I27
sS'immediate'
p846
I73
sS'unrealistic'
p847
I3
sS'grace'
p848
I10
sS'sogomonian'
p849
I42
sS'aas'
p850
I8
sS'delainy'
p851
I3
sS'sell'
p852
I143
sS'baggerly'
p853
I11
sS'ieor'
p854
I32
sS'self'
p855
I9
sS'also'
p856
I108
sS'internal'
p857
I163
sS'364463'
p858
I65
sS'ancillary'
p859
I8
sS'jacinto'
p860
I11
sS'play'
p861
I140
sS'busby'
p862
I5
sS'agnihotri'
p863
I124
sS'saxet'
p864
I61
sS'brooklyn'
p865
I71
sS'plan'
p866
I1072
sS'djfr'
p867
I5
sS'cover'
p868
I195
sS'ext'
p869
I32
sS'haughton'
p870
I23
sS'microsoft'
p871
I26
sS'wording'
p872
I9
sS'golf'
p873
I130
sS'gold'
p874
I16
sS'accommodations'
p875
I52
sS'session'
p876
I176
sS'freight'
p877
I5
sS'impact'
p878
I171
sS'writer'
p879
I6
sS'failed'
p880
I6
sS'wayne'
p881
I102
sS'equity'
p882
I184
sS'1465'
p883
I3
sS'remedy'
p884
I65
sS'preparing'
p885
I3
sS'banner'
p886
I47
sS'enemy'
p887
I5
sS'rfq'
p888
I48
sS'rfp'
p889
I56
sS'cre'
p890
I29
sS'river'
p891
I42
sS'approaching'
p892
I43
sS'319'
p893
I13
sS'set'
p894
I190
sS'sep'
p895
I40
sS'311'
p896
I95
sS'startup'
p897
I8
sS'315'
p898
I13
sS'314'
p899
I14
sS'see'
p900
I68
sS'sec'
p901
I76
sS'migration'
p902
I66
sS'sea'
p903
I193
sS'sel'
p904
I5
sS'movie'
p905
I13
sS'nopr'
p906
I11
sS'rejecting'
p907
I276
sS'europe'
p908
I647
sS'dleivery'
p909
I4
sS'tristar'
p910
I3
sS'legislature'
p911
I67
sS'prospects'
p912
I25
sS'last'
p913
I424
sS'pdt'
p914
I8
sS'pdo'
p915
I256
sS'connection'
p916
I82
sS'whole'
p917
I3
sS'load'
p918
I173
sS'loan'
p919
I295
sS'selden'
p920
I4
sS'devil'
p921
I15
sS'monthly'
p922
I783
sS'acceptance'
p923
I160
sS'dealmaker'
p924
I5
sS'firm'
p925
I324
sS'wheeler'
p926
I2
sS'fund'
p927
I126
sS'inclement'
p928
I10
sS'6296'
p929
I62
sS'enrollment'
p930
I44
sS'expanded'
p931
I67
sS'mln'
p932
I193
sS'budget'
p933
I595
sS'receive'
p934
I4
sS'optimization'
p935
I243
sS'duran'
p936
I6
sS'error'
p937
I267
sS'robin'
p938
I220
sS'walther'
p939
I9
sS'real'
p940
I1718
sS'pound'
p941
I30
sS'hoping'
p942
I5
sS'vol'
p943
I74
sS'calculator'
p944
I10
sS'xiao'
p945
I20
sS'981052'
p946
I13
sS'triple'
p947
I9
sS'chase'
p948
I70
sS'funny'
p949
I61
sS'874'
p950
I7
sS'ledgers'
p951
I30
sS'alert'
p952
I1106
sS'viewing'
p953
I25
sS'vargas'
p954
I8
sS'stack'
p955
I113
sS'recent'
p956
I97
sS'early'
p957
I10
sS'picks'
p958
I76
sS'person'
p959
I87
sS'rosters'
p960
I11
sS'scheduler'
p961
I11
sS'144932'
p962
I14
sS'mcnic'
p963
I91
sS'dhar'
p964
I27
sS'parents'
p965
I12
sS'location'
p966
I101
sS'sydney'
p967
I292
sS'input'
p968
I83
sS'emergency'
p969
I14
sS'couple'
p970
I54
sS'1099'
p971
I48
sS'quest'
p972
I21
sS'baskets'
p973
I69
sS'projects'
p974
I315
sS'd'
I1091
sS'11212001'
p975
I21
sS'individuals'
p976
I28
sS'names'
p977
I278
sS'crescendo'
p978
I5
sS'clipping'
p979
I5
sS'methods'
p980
I55
sS'senate'
p981
I65
sS'spring'
p982
I659
sS'palm'
p983
I11
sS'palo'
p984
I4
sS'broadband'
p985
I43
sS'blackberry'
p986
I15
sS'be'
p987
I785
sS'bc'
p988
I92
sS'bi'
p989
I58
sS'bp'
p990
I58
sS'santa'
p991
I44
sS'by'
p992
I1669
sS'stuart'
p993
I10
sS'repair'
p994
I24
sS'computational'
p995
I80
sS'colorado'
p996
I54
sS'into'
p997
I179
sS'appropriate'
p998
I6
sS'clustering'
p999
I122
sS'span'
p1000
I14
sS'spending'
p1001
I20
sS'bios'
p1002
I30
sS'wicusiu'
p1003
I25
sS'link'
p1004
I101
sS'pacific'
p1005
I121
sS'line'
p1006
I884
sS'heinrich'
p1007
I37
sS'posted'
p1008
I16
sS'ut'
p1009
I404
sS'up'
p1010
I1551
sS'us'
p1011
I692
sS'erica'
p1012
I7
sS'customers'
p1013
I25
sS'verification'
p1014
I30
sS'uk'
p1015
I595
sS'989648'
p1016
I11
sS'uc'
p1017
I236
sS'supervisor'
p1018
I107
sS'influence'
p1019
I132
sS'chap'
p1020
I45
sS'chat'
p1021
I10
sS'codes'
p1022
I108
sS'competitors'
p1023
I26
sS'0986725'
p1024
I271
sS'jcc'
p1025
I136
sS'revision'
p1026
I828
sS'ferries'
p1027
I5
sS'land'
p1028
I174
sS'algorithm'
p1029
I11
sS'age'
p1030
I27
sS'walked'
p1031
I3
sS'summit'
p1032
I154
sS'oracle'
p1033
I34
sS'having'
p1034
I78
sS'centana'
p1035
I186
sS'code'
p1036
I124
sS'results'
p1037
I372
sS'9676'
p1038
I95
sS'transistion'
p1039
I25
sS'centers'
p1040
I8
sS'cody'
p1041
I88
sS'weygandt'
p1042
I100
sS'concerned'
p1043
I14
sS'young'
p1044
I5
sS'send'
p1045
I210
sS'dickinson'
p1046
I24
sS'postings'
p1047
I19
sS'sent'
p1048
I97
sS'ubsw'
p1049
I132
sS'continues'
p1050
I27
sS'ludmilo'
p1051
I25
sS'alcar'
p1052
I21
sS'minerals'
p1053
I58
sS'tri'
p1054
I125
sS'northwestern'
p1055
I5
sS'prix'
p1056
I52
sS'harbor'
p1057
I42
sS'eva'
p1058
I65
sS'eve'
p1059
I1
sS'clewlow'
p1060
I140
sS'try'
p1061
I52
sS'trv'
p1062
I2
sS'logistics'
p1063
I182
sS'pledge'
p1064
I14
sS'video'
p1065
I279
sS'licenses'
p1066
I31
sS'index'
p1067
I303
sS'multimedia'
p1068
I74
sS'indian'
p1069
I60
sS'1400'
p1070
I84
sS'692'
p1071
I9
sS'lee'
p1072
I40
sS'lei'
p1073
I7
sS'pianting'
p1074
I14
sS'shockwaves'
p1075
I6
sS'let'
p1076
I87
sS'lew'
p1077
I19
sS'consideration'
p1078
I32
sS'great'
p1079
I190
sS'ctr'
p1080
I30
sS'technical'
p1081
I218
sS'involved'
p1082
I25
sS'ctg'
p1083
I106
sS'survey'
p1084
I1089
sS'ctc'
p1085
I20
sS'opinion'
p1086
I5
sS'maket'
p1087
I55
sS'rdi'
p1088
I67
sS'maker'
p1089
I70
sS'335'
p1090
I14
sS'330'
p1091
I18
sS'neiman'
p1092
I7
sS'confidence'
p1093
I24
sS'certificate'
p1094
I76
sS'next'
p1095
I865
sS'midlothian'
p1096
I41
sS'etoco'
p1097
I3
sS'actuals'
p1098
I987
sS'opposing'
p1099
I3
sS'baby'
p1100
I23
sS'srf'
p1101
I65
sS'charity'
p1102
I30
sS'customer'
p1103
I517
sS'integrating'
p1104
I18
sS'this'
p1105
I1601
sS'challenge'
p1106
I59
sS'when'
p1107
I36
sS'worksheet'
p1108
I51
sS'weaker'
p1109
I3
sS'process'
p1110
I442
sS'reedy'
p1111
I23
sS'high'
p1112
I211
sS'usernames'
p1113
I16
sS'bengalla'
p1114
I169
sS'crandall'
p1115
I9
sS'wolf'
p1116
I103
sS'intelligent'
p1117
I27
sS'982694'
p1118
I4
sS'tied'
p1119
I3
sS'halted'
p1120
I54
sS'984229'
p1121
I138
sS'counter'
p1122
I8
sS'houston'
p1123
I2917
sS'producer'
p1124
I134
sS'vmi'
p1125
I108
sS'insight'
p1126
I56
sS'cambridge'
p1127
I482
sS'stalled'
p1128
I25
sS'derivative'
p1129
I247
sS'attachment'
p1130
I34
sS'designs'
p1131
I10
sS'mitigates'
p1132
I49
sS'docs'
p1133
I280
sS'maintanence'
p1134
I20
sS'rotation'
p1135
I108
sS'outlines'
p1136
I7
sS'presidential'
p1137
I28
sS'merge'
p1138
I24
sS'accounts'
p1139
I60
sS'doing'
p1140
I121
sS'society'
p1141
I27
sS'frequency'
p1142
I8
sS'static'
p1143
I16
sS'tolling'
p1144
I16
sS'agriculture'
p1145
I46
sS'matrix'
p1146
I13
sS'psim'
p1147
I16
sS'adaptive'
p1148
I20
sS'burke'
p1149
I19
sS'shut'
p1150
I181
sS'hyundai'
p1151
I36
sS'latest'
p1152
I642
sS'regulatory'
p1153
I176
sS'steering'
p1154
I12
sS'godfrey'
p1155
I3
sS'could'
p1156
I71
sS'david'
p1157
I167
sS'davis'
p1158
I237
sS'scare'
p1159
I44
sS'anita'
p1160
I134
sS'ihi'
p1161
I2
sS'owner'
p1162
I48
sS'legislative'
p1163
I179
sS'ordering'
p1164
I27
sS'system'
p1165
I231
sS'genco'
p1166
I20
sS'bridgeline'
p1167
I171
sS'steel'
p1168
I8
sS'roberts'
p1169
I45
sS'briefing'
p1170
I183
sS'hesco'
p1171
I148
sS'viewer'
p1172
I4
sS'partnership'
p1173
I71
sS'tonight'
p1174
I9
sS'gentle'
p1175
I28
sS'blockbuster'
p1176
I8
sS'multiclient'
p1177
I27
sS'documents'
p1178
I423
sS'lila'
p1179
I14
sS'financials'
p1180
I3
sS'brazil'
p1181
I57
sS'courtesy'
p1182
I18
sS'said'
p1183
I29
sS'expertfinder'
p1184
I10
sS'brainful'
p1185
I119
sS'47472'
p1186
I42
sS'segment'
p1187
I15
sS'manoj'
p1188
I4
sS'stronger'
p1189
I6
sS'thanksgiving'
p1190
I22
sS'painting'
p1191
I5
sS'zhiyong'
p1192
I7
sS'dba'
p1193
I138
sS'terminate'
p1194
I3
sS'bring'
p1195
I11
sS'lloyd'
p1196
I4
sS'rough'
p1197
I33
sS'economist'
p1198
I86
sS'brink'
p1199
I143
sS'jay'
p1200
I8
sS'should'
p1201
I65
sS'terminal'
p1202
I46
sS'entities'
p1203
I31
sS'hope'
p1204
I8
sS'move'
p1205
I379
sS'handle'
p1206
I9
sS'bonds'
p1207
I42
sS'abbl'
p1208
I8
sS'abbs'
p1209
I12
sS'ranabir'
p1210
I9
sS'aep'
p1211
I319
sS'committees'
p1212
I115
sS'h'
I324
sS'taxes'
p1213
I17
sS'stuff'
p1214
I234
sS'tufco'
p1215
I73
sS'6315'
p1216
I43
sS'ohio'
p1217
I31
sS'qtr'
p1218
I82
sS'correlations'
p1219
I77
sS'packet'
p1220
I93
sS'edition'
p1221
I41
sS'lamas'
p1222
I5
sS'subcommittee'
p1223
I7
sS'9658'
p1224
I4
sS'goddard'
p1225
I48
sS'wire'
p1226
I25
sS'sarco'
p1227
I44
sS'poorman'
p1228
I14
sS'otc'
p1229
I17
sS'email'
p1230
I832
sS'ends'
p1231
I87
sS'bridges'
p1232
I6
sS'butts'
p1233
I6
sS'invited'
p1234
I33
sS'etc'
p1235
I133
sS'eta'
p1236
I122
sS'invites'
p1237
I30
sS'adjusted'
p1238
I11
sS'co'
p1239
I1022
sS'cn'
p1240
I43
sS'cm'
p1241
I33
sS'cl'
p1242
I11
sS'cc'
p1243
I44
sS'ca'
p1244
I327
sS'cd'
p1245
I29
sS'worksheets'
p1246
I10
sS'cs'
p1247
I7
sS'allocated'
p1248
I140
sS'tsa'
p1249
I43
sS'cv'
p1250
I281
sS'hawkins'
p1251
I61
sS'yeol'
p1252
I20
sS'1429'
p1253
I5
sS'1428'
p1254
I207
sS'690249'
p1255
I87
sS'genetic'
p1256
I20
sS'louisiana'
p1257
I80
sS'rabi'
p1258
I189
sS'freeport'
p1259
I43
sS'cvs'
p1260
I4
sS'expiration'
p1261
I34
sS'maui'
p1262
I36
sS'intranet'
p1263
I73
sS've'
p1264
I69
sS'gorons'
p1265
I58
sS'vl'
p1266
I96
sS'site'
p1267
I505
sS'hardware'
p1268
I24
sS'vs'
p1269
I286
sS'vx'
p1270
I11
sS'tatton'
p1271
I11
sS'terrorist'
p1272
I28
sS'paulo'
p1273
I259
sS'matthew'
p1274
I105
sS'terrorism'
p1275
I433
sS'paula'
p1276
I113
sS'infinity'
p1277
I4
sS'raymond'
p1278
I95
sS'upon'
p1279
I39
sS'forecasts'
p1280
I27
sS'dayao'
p1281
I15
sS'diabetes'
p1282
I37
sS'audit'
p1283
I72
sS'off'
p1284
I590
sS'command'
p1285
I26
sS'drawing'
p1286
I27
sS'softening'
p1287
I26
sS'less'
p1288
I3
sS'paul'
p1289
I133
sS'web'
p1290
I620
sS'rercruiting'
p1291
I37
sS'wed'
p1292
I112
sS'wei'
p1293
I7
sS'spinner'
p1294
I37
sS'985892'
p1295
I24
sS'exempt'
p1296
I10
sS'increased'
p1297
I9
sS'government'
p1298
I10
sS'increases'
p1299
I48
sS'goings'
p1300
I20
sS'password'
p1301
I153
sS'desc'
p1302
I11
sS'cusip'
p1303
I35
sS'resid'
p1304
I63
sS'mhi'
p1305
I242
sS'chairs'
p1306
I90
sS'replacement'
p1307
I345
sS'amendment'
p1308
I229
sS'guaranty'
p1309
I40
sS'dynegy'
p1310
I356
sS'tamsa'
p1311
I13
sS'choosing'
p1312
I44
sS'springs'
p1313
I5
sS'ballot'
p1314
I8
sS'transport'
p1315
I619
sS'implemention'
p1316
I15
sS'avoid'
p1317
I39
sS'fedex'
p1318
I26
sS'breakout'
p1319
I71
sS'keystone'
p1320
I13
sS'blowing'
p1321
I68
sS'11958'
p1322
I19
sS'schedule'
p1323
I1371
sS'selecting'
p1324
I30
sS'pressure'
p1325
I11
sS'157288'
p1326
I15
sS'loanx'
p1327
I35
sS'loans'
p1328
I7
sS'counties'
p1329
I35
sS'iris'
p1330
I826
sS'union'
p1331
I236
sS'9794'
p1332
I37
sS'software'
p1333
I514
sS'alliance'
p1334
I721
sS'letters'
p1335
I4
sS'pigging'
p1336
I97
sS'commitment'
p1337
I24
sS'camden'
p1338
I35
sS'terminated'
p1339
I145
sS'much'
p1340
I38
sS'huan'
p1341
I36
sS'delivery'
p1342
I580
sS'convergence'
p1343
I24
sS'delivers'
p1344
I5
sS'valuation'
p1345
I281
sS'entered'
p1346
I28
sS'count'
p1347
I133
sS'flagstaff'
p1348
I7
sS'marquis'
p1349
I2
sS'deficiency'
p1350
I48
sS'catanese'
p1351
I6
sS'imbalances'
p1352
I96
sS'placed'
p1353
I24
sS'books'
p1354
I150
sS'distribution'
p1355
I147
sS'skytel'
p1356
I7
sS'yannis'
p1357
I46
sS'slowing'
p1358
I37
sS'availabilities'
p1359
I357
sS'inn'
p1360
I17
sS'ftrs'
p1361
I9
sS'inc'
p1362
I593
sS'trials'
p1363
I28
sS'marketpoint'
p1364
I318
sS'details'
p1365
I180
sS'hpl'
p1366
I4491
sS'francisco'
p1367
I23
sS'monday'
p1368
I348
sS'chance'
p1369
I29
sS'exposure'
p1370
I56
sS'expre'
p1371
I9
sS'rule'
p1372
I11
sS'eol'
p1373
I1216
sS'470'
p1374
I76
sS'write'
p1375
I18
sS'status'
p1376
I2274
sS'announces'
p1377
I833
sS'questionnaires'
p1378
I57
sS'texoma'
p1379
I182
sS'ticketed'
p1380
I51
sS'opticus'
p1381
I71
sS'consolidated'
p1382
I12
sS'crete'
p1383
I27
sS'saved'
p1384
I4
sS'stinks'
p1385
I14
sS'votes'
p1386
I18
sS'inzynierie'
p1387
I10
sS'inzynieria'
p1388
I41
sS'matlab'
p1389
I33
sS'spec'
p1390
I6
sS'3991'
p1391
I25
sS'aurora'
p1392
I107
sS'jacob'
p1393
I65
sS'tickets'
p1394
I672
sS'cashflow'
p1395
I24
sS'cme'
p1396
I146
sS'red'
p1397
I436
sS'cmu'
p1398
I10
sS'cms'
p1399
I18
sS'cmp'
p1400
I14
sS'phones'
p1401
I66
sS'lacy'
p1402
I30
sS'chen'
p1403
I11
sS'machines'
p1404
I111
sS'established'
p1405
I57
sS'pts'
p1406
I1
sS'petro'
p1407
I39
sS'above'
p1408
I54
sS'toll'
p1409
I41
sS'told'
p1410
I19
sS'interns'
p1411
I180
sS'residual'
p1412
I25
sS'pluto'
p1413
I181
sS'celebration'
p1414
I138
sS'kudos'
p1415
I3
sS'glo'
p1416
I76
sS'items'
p1417
I219
sS'employees'
p1418
I518
sS'pooling'
p1419
I21
sS'ethane'
p1420
I17
sS'6373'
p1421
I12
sS'tglo'
p1422
I66
sS'secure'
p1423
I3
sS'96037499'
p1424
I17
sS'highly'
p1425
I34
sS'9638'
p1426
I11
sS'thursday'
p1427
I373
sS'total'
p1428
I65
sS'sarah'
p1429
I12
sS'plot'
p1430
I28
sS'backwardation'
p1431
I23
sS'negative'
p1432
I20
sS'alamac'
p1433
I68
sS'award'
p1434
I105
sS'regrouping'
p1435
I54
sS'tariff'
p1436
I276
sS'erv'
p1437
I3
sS'1997'
p1438
I131
sS'1999'
p1439
I293
sS'1998'
p1440
I46
sS'work'
p1441
I806
sS'refusing'
p1442
I1
sS'transparency'
p1443
I13
sS'erc'
p1444
I55
sS'transwestern'
p1445
I4
sS'gloria'
p1446
I33
sS'bennett'
p1447
I212
sS'india'
p1448
I1726
sS'550'
p1449
I51
sS'gofl'
p1450
I37
sS'walsh'
p1451
I2
sS'recovery'
p1452
I2
sS'provide'
p1453
I15
sS'nuts'
p1454
I20
sS'methanol'
p1455
I250
sS'fas'
p1456
I174
sS'interview'
p1457
I3673
sS'resignation'
p1458
I35
sS'offshore'
p1459
I41
sS'lal'
p1460
I5
sS'after'
p1461
I92
sS'lab'
p1462
I228
sS'halliburton'
p1463
I18
sS'lay'
p1464
I437
sS'arco'
p1465
I9
sS'las'
p1466
I21
sS'padre'
p1467
I147
sS'schneider'
p1468
I2
sS'appreciate'
p1469
I5
sS'green'
p1470
I204
sS'order'
p1471
I1249
sS'office'
p1472
I601
sS'consent'
p1473
I336
sS'neta'
p1474
I40
sS'japan'
p1475
I88
sS'ibasco'
p1476
I34
sS'highlights'
p1477
I86
sS'denver'
p1478
I69
sS'production'
p1479
I1506
sS'split'
p1480
I30
sS'versus'
p1481
I32
sS'then'
p1482
I17
sS'them'
p1483
I127
sS'affected'
p1484
I79
sS'break'
p1485
I22
sS'they'
p1486
I78
sS'mgmt'
p1487
I223
sS'payback'
p1488
I81
sS'bank'
p1489
I65
sS'l'
I1350
sS'alexis'
p1490
I98
sS'378'
p1491
I26
sS'carlos'
p1492
I27
sS'jillian'
p1493
I7
sS'network'
p1494
I428
sS'legalies'
p1495
I1
sS'daniel'
p1496
I30
sS'tso'
p1497
I22
sS'wellheads'
p1498
I13
sS'standard'
p1499
I110
sS'disputes'
p1500
I26
sS'certified'
p1501
I23
sS'enichem'
p1502
I19
sS'esnva'
p1503
I9
sS'festival'
p1504
I48
sS'renew'
p1505
I18
sS'oppose'
p1506
I40
sS'baltic'
p1507
I8
sS'benchmarking'
p1508
I212
sS'kim'
p1509
I59
sS'decem'
p1510
I108
sS'another'
p1511
I267
sS'electronic'
p1512
I131
sS'hedging'
p1513
I341
sS'mcgee'
p1514
I23
sS'9401'
p1515
I67
sS'rates'
p1516
I587
sS'observations'
p1517
I5
sS'john'
p1518
I544
sS'alonso'
p1519
I3
sS'luncheon'
p1520
I319
sS'toronto'
p1521
I200
sS'citibank'
p1522
I12
sS'digitals'
p1523
I37
sS'6387'
p1524
I34
sS'historical'
p1525
I155
sS'rewrite'
p1526
I127
sS'materials'
p1527
I112
sS'forces'
p1528
I91
sS'completed'
p1529
I93
sS'unsecured'
p1530
I162
sS'germani'
p1531
I18
sS'bruce'
p1532
I88
sS'extending'
p1533
I98
sS'phase'
p1534
I258
sS'yours'
p1535
I6
sS'reserve'
p1536
I293
sS'cuiaba'
p1537
I8
sS'brief'
p1538
I9
sS'intramonth'
p1539
I33
sS'implementation'
p1540
I100
sS'encina'
p1541
I271
sS'executive'
p1542
I660
sS'do'
p1543
I408
sS'johanns'
p1544
I35
sS'dg'
p1545
I13
sS'de'
p1546
I336
sS'dc'
p1547
I44
sS'da'
p1548
I66
sS'dr'
p1549
I454
sS'ds'
p1550
I7
sS'dq'
p1551
I5
sS'eme'
p1552
I17
sS'ema'
p1553
I21
sS'eml'
p1554
I56
sS'dupont'
p1555
I156
sS'413'
p1556
I31
sS'analytical'
p1557
I16
sS'1386'
p1558
I4
sS'rahal'
p1559
I5
sS'analytics'
p1560
I29
sS'projections'
p1561
I126
sS'discussions'
p1562
I167
sS'frontline'
p1563
I5
sS'berryman'
p1564
I13
sS'mitch'
p1565
I74
sS'away'
p1566
I52
sS'quickenloans'
p1567
I30
sS'airfaire'
p1568
I34
sS'wg'
p1569
I730
sS'we'
p1570
I490
sS'wc'
p1571
I48
sS'amereada'
p1572
I11
sS'castleman'
p1573
I44
sS'kitchen'
p1574
I826
sS'received'
p1575
I11
sS'gasper'
p1576
I24
sS'cow'
p1577
I27
sS'sundace'
p1578
I8
sS'cox'
p1579
I19
sS'cob'
p1580
I163
sS'brad'
p1581
I80
sS'transmission'
p1582
I196
sS'requests'
p1583
I56
sS'com'
p1584
I2429
sS'negotiation'
p1585
I10
sS'onondaga'
p1586
I41
sS'tony'
p1587
I85
sS'chelmsford'
p1588
I78
sS'gratitude'
p1589
I9
sS'engines'
p1590
I7
sS'buffett'
p1591
I33
sS'sachs'
p1592
I7
sS'flexible'
p1593
I4
sS'duties'
p1594
I29
sS'stinson'
p1595
I74
sS'families'
p1596
I5
sS'baum'
p1597
I10
sS'concerning'
p1598
I25
sS'applied'
p1599
I38
sS'east'
p1600
I260
sS'6353'
p1601
I5
sS'stubs'
p1602
I43
sS'air'
p1603
I67
sS'aig'
p1604
I152
sS'voice'
p1605
I19
sS'cone'
p1606
I42
sS'conf'
p1607
I313
sS'comparative'
p1608
I219
sS'conn'
p1609
I71
sS'confirmed'
p1610
I56
sS'patent'
p1611
I96
sS'deepens'
p1612
I42
sS'jerry'
p1613
I4
sS'14886'
p1614
I48
sS'advertising'
p1615
I30
sS'independent'
p1616
I509
sS'counterparty'
p1617
I23
sS'rail'
p1618
I24
sS'counterparts'
p1619
I29
sS'campo'
p1620
I15
sS'1601'
p1621
I25
sS'1600'
p1622
I12
sS'thu'
p1623
I173
sS'humble'
p1624
I31
sS'warburg'
p1625
I338
sS'contact'
p1626
I1017
sS'goals'
p1627
I58
sS'the'
p1628
I12313
sS'epc'
p1629
I10
sS'diffusions'
p1630
I112
sS'newton'
p1631
I7
sS'quotes'
p1632
I6
sS'thanks'
p1633
I414
sS'sabbatical'
p1634
I28
sS'citgo'
p1635
I43
sS'adding'
p1636
I114
sS'transformer'
p1637
I5
sS'hills'
p1638
I16
sS'amoco'
p1639
I57
sS'spread'
p1640
I142
sS'board'
p1641
I533
sS'fares'
p1642
I127
sS'openings'
p1643
I91
sS'lcs'
p1644
I72
sS'caps'
p1645
I150
sS'capm'
p1646
I31
sS'boxes'
p1647
I21
sS'mays'
p1648
I4
sS'aram'
p1649
I86
sS'bpa'
p1650
I145
sS'mir'
p1651
I49
sS'securities'
p1652
I89
sS'bps'
p1653
I6
sS'534'
p1654
I11
sS'night'
p1655
I63
sS'security'
p1656
I310
sS'709296'
p1657
I7
sS'webb'
p1658
I8
sS'webi'
p1659
I13
sS'comments'
p1660
I643
sS'asking'
p1661
I112
sS'participation'
p1662
I708
sS'columbus'
p1663
I25
sS'pls'
p1664
I21
sS'marketing'
p1665
I993
sS'restructuring'
p1666
I114
sS'phew'
p1667
I14
sS'peer'
p1668
I42
sS'post'
p1669
I205
sS'install'
p1670
I16
sS'coral'
p1671
I11
sS'months'
p1672
I112
sS'visa'
p1673
I459
sS'enpwer'
p1674
I54
sS'opic'
p1675
I21
sS'samer'
p1676
I52
sS'balances'
p1677
I23
sS'inablity'
p1678
I93
sS'compression'
p1679
I24
sS'legislation'
p1680
I46
sS'way'
p1681
I218
sS'cleburne'
p1682
I243
sS'was'
p1683
I448
sS'weldon'
p1684
I13
sS'diligence'
p1685
I134
sS'responding'
p1686
I35
sS'captive'
p1687
I17
sS'mtr'
p1688
I3
sS'mtv'
p1689
I88
sS'maximus'
p1690
I1
sS'mtg'
p1691
I377
sS'moore'
p1692
I2
sS'computing'
p1693
I134
sS'abstract'
p1694
I240
sS'promised'
p1695
I58
sS'prayer'
p1696
I15
sS'allegheny'
p1697
I479
sS'archive'
p1698
I30
sS'physical'
p1699
I131
sS'pickering'
p1700
I13
sS'holding'
p1701
I3
sS'test'
p1702
I283
sS'welcome'
p1703
I374
sS'update'
p1704
I7558
sS'wazzzup'
p1705
I40
sS'dulce'
p1706
I51
sS'concorde'
p1707
I2
sS'together'
p1708
I491
sS'reception'
p1709
I64
sS'governer'
p1710
I56
sS'zadzoniles'
p1711
I7
sS'global'
p1712
I1071
sS'dalton'
p1713
I5
sS'heller'
p1714
I34
sS'zone'
p1715
I138
sS'graph'
p1716
I34
sS'flash'
p1717
I55
sS'southwest'
p1718
I20
sS'brown'
p1719
I337
sS'charles'
p1720
I305
sS'zhang'
p1721
I213
sS'vegas'
p1722
I21
sS'entries'
p1723
I38
sS'trouble'
p1724
I7
sS'fortnightly'
p1725
I10
sS'78033'
p1726
I15
sS'78032'
p1727
I15
sS'bhlp'
p1728
I111
sS'turns'
p1729
I28
sS'p'
I1245
sS'guy'
p1730
I22
sS'upper'
p1731
I106
sS'8608'
p1732
I4
sS'revolution'
p1733
I107
sS'strickland'
p1734
I50
sS'htm'
p1735
I1
sS'cost'
p1736
I671
sS'upped'
p1737
I97
sS'cargo'
p1738
I36
sS'transportion'
p1739
I15
sS'assistance'
p1740
I41
sS'rollup'
p1741
I21
sS'shares'
p1742
I35
sS'wolfe'
p1743
I26
sS'oaks'
p1744
I9
sS'collateral'
p1745
I80
sS'redskins'
p1746
I26
sS'apache'
p1747
I107
sS'change'
p1748
I1503
sS'kingwood'
p1749
I82
sS'originations'
p1750
I330
sS'trial'
p1751
I137
sS'franklin'
p1752
I25
sS'mujica'
p1753
I26
sS'montreal'
p1754
I5
sS'churchill'
p1755
I2
sS'retiree'
p1756
I48
sS'marked'
p1757
I58
sS'marker'
p1758
I10
sS'mobil'
p1759
I400
sS'softs'
p1760
I7
sS'jan'
p1761
I973
sS'ercs'
p1762
I27
sS'resigns'
p1763
I32
sS'live'
p1764
I358
sS'commissioner'
p1765
I2
sS'jayasuriya'
p1766
I58
sS'prepay'
p1767
I11
sS'ibm'
p1768
I51
sS'car'
p1769
I17
sS'cap'
p1770
I95
sS'decker'
p1771
I10
sS'can'
p1772
I309
sS'cal'
p1773
I243
sS'brcc'
p1774
I2
sS'trans'
p1775
I22
sS'creditdotcom'
p1776
I43
sS'wacog'
p1777
I5
sS'zhendong'
p1778
I94
sS'spp'
p1779
I18
sS'december'
p1780
I865
sS'chin'
p1781
I16
sS'fortunately'
p1782
I3
sS'discussion'
p1783
I367
sS'spreads'
p1784
I3
sS'lounge'
p1785
I21
sS'economy'
p1786
I92
sS'product'
p1787
I195
sS'use'
p1788
I33
sS'southern'
p1789
I165
sS'worthen'
p1790
I8
sS'nomination'
p1791
I1958
sS'eletrobolt'
p1792
I67
sS'futures'
p1793
I42
sS'approx'
p1794
I3
sS'haircut'
p1795
I137
sS'soc'
p1796
I8
sS'statistical'
p1797
I11
sS'cole'
p1798
I14
sS'cola'
p1799
I27
sS'forma'
p1800
I10
sS'willow'
p1801
I234
sS'terminations'
p1802
I16
sS'forms'
p1803
I223
sS'norway'
p1804
I35
sS'nom'
p1805
I1592
sS'non'
p1806
I113
sS'halt'
p1807
I22
sS'noram'
p1808
I2
sS'havoline'
p1809
I52
sS'tails'
p1810
I14
sS'half'
p1811
I31
sS'not'
p1812
I386
sS'nov'
p1813
I318
sS'now'
p1814
I674
sS'hall'
p1815
I11
sS'nor'
p1816
I67
sS'nos'
p1817
I12
sS'down'
p1818
I115
sS'james'
p1819
I204
sS'kerr'
p1820
I23
sS'kern'
p1821
I9
sS'entirely'
p1822
I2
sS'el'
p1823
I354
sS'domain'
p1824
I160
sS'en'
p1825
I3
sS'ei'
p1826
I59
sS'fired'
p1827
I9
sS'ee'
p1828
I3
sS'ed'
p1829
I121
sS'ea'
p1830
I153
sS'yeah'
p1831
I31
sS'ec'
p1832
I14
sS'eb'
p1833
I155
sS'fires'
p1834
I69
sS'curveball'
p1835
I20
sS'ex'
p1836
I70
sS'1485'
p1837
I10
sS'year'
p1838
I1370
sS'eu'
p1839
I98
sS'et'
p1840
I76
sS'happen'
p1841
I34
sS'teams'
p1842
I73
sS'space'
p1843
I59
sS'fw'
p1844
I27293
sS'increase'
p1845
I178
sS'receiving'
p1846
I8
sS'709101'
p1847
I2
sS'carr'
p1848
I16
sS'cars'
p1849
I54
sS'keeter'
p1850
I2
sS'carl'
p1851
I76
sS'obligation'
p1852
I7
sS'marine'
p1853
I36
sS'lme'
p1854
I54
sS'card'
p1855
I216
sS'care'
p1856
I6
sS'gerardo'
p1857
I6
sS'transition'
p1858
I459
sS'british'
p1859
I7
sS'lindsey'
p1860
I57
sS'invitation'
p1861
I2197
sS'promotion'
p1862
I369
sS'xl'
p1863
I18
sS'helton'
p1864
I8
sS'variables'
p1865
I13
sS'8291'
p1866
I22
sS'impossible'
p1867
I25
sS'message'
p1868
I844
sS'tomorrow'
p1869
I169
sS'size'
p1870
I20
sS'sheet'
p1871
I155
sS'enbridge'
p1872
I12
sS'carson'
p1873
I19
sS'friend'
p1874
I82
sS'96002201'
p1875
I2
sS'albertapower'
p1876
I1
sS'that'
p1877
I241
sS'appreciated'
p1878
I89
sS'wsmh'
p1879
I9
sS'recruit'
p1880
I4
sS'volat'
p1881
I46
sS'documentation'
p1882
I17
sS'correction'
p1883
I162
sS'breakfast'
p1884
I124
sS'windsor'
p1885
I103
sS'offering'
p1886
I25
sS'equipment'
p1887
I84
sS'ctaee'
p1888
I51
sS'online'
p1889
I666
sS'entouch'
p1890
I834
sS'price'
p1891
I1141
sS'america'
p1892
I174
sS'michelle'
p1893
I148
sS'failure'
p1894
I61
sS'implications'
p1895
I94
sS'spaceland'
p1896
I28
sS'resco'
p1897
I240
sS'fifth'
p1898
I10
sS'upgrade'
p1899
I62
sS'acock'
p1900
I106
sS'title'
p1901
I22
sS'lahey'
p1902
I20
sS'only'
p1903
I178
sS'thompson'
p1904
I11
sS'interstate'
p1905
I19
sS'cannon'
p1906
I149
sS'iwon'
p1907
I132
sS'truly'
p1908
I5
sS'verleger'
p1909
I23
sS'hios'
p1910
I16
sS'hungerford'
p1911
I10
sS'7361'
p1912
I9
sS'thurs'
p1913
I5
sS'3'
I2733
sS'between'
p1914
I44
sS'ytd'
p1915
I29
sS'notice'
p1916
I161
sS'hurta'
p1917
I46
sS'blame'
p1918
I16
sS'article'
p1919
I1267
sS'installation'
p1920
I40
sS'esource'
p1921
I19
sS'voicemail'
p1922
I197
sS'overview'
p1923
I104
sS'dispatch'
p1924
I57
sS'learning'
p1925
I236
sS'renewals'
p1926
I105
sS'fradas'
p1927
I9
sS'skew'
p1928
I13
sS'external'
p1929
I6
sS'realities'
p1930
I26
sS'eis'
p1931
I45
sS'these'
p1932
I21
sS'eix'
p1933
I25
sS'valero'
p1934
I384
sS'eim'
p1935
I39
sS'erac'
p1936
I50
sS'interviewers'
p1937
I8
sS'beaver'
p1938
I179
sS'ship'
p1939
I5
sS'media'
p1940
I81
sS'gentlemen'
p1941
I14
sS'ceo'
p1942
I39
sS'inquiry'
p1943
I141
sS'weijun'
p1944
I40
sS'document'
p1945
I260
sS'extravaganza'
p1946
I26
sS'swerzbin'
p1947
I15
sS'experienceenron'
p1948
I25
sS'charges'
p1949
I321
sS'narongwanich'
p1950
I15
sS'moodys'
p1951
I3
sS'neon'
p1952
I187
sS'greetings'
p1953
I335
sS'touch'
p1954
I28
sS'revaluation'
p1955
I6
sS'thinking'
p1956
I28
sS'desktop'
p1957
I134
sS'republic'
p1958
I62
sS'ami'
p1959
I86
sS'vandor'
p1960
I8
sS'ponderosa'
p1961
I7
sS'read'
p1962
I361
sS'calendars'
p1963
I24
sS'amy'
p1964
I275
sS'outsource'
p1965
I8
sS'campos'
p1966
I18
sS'using'
p1967
I177
sS'574'
p1968
I18
sS'lady'
p1969
I7
sS'fortune'
p1970
I1529
sS'greeting'
p1971
I43
sS'miracle'
p1972
I59
sS'untangle'
p1973
I37
sS'benefit'
p1974
I139
sS't'
I316
sS'postponed'
p1975
I4
sS'output'
p1976
I14
sS'giuseppe'
p1977
I159
sS'bellamy'
p1978
I37
sS'verbal'
p1979
I1
sS'tamiment'
p1980
I14
sS'questionnaire'
p1981
I32
sS'csfb'
p1982
I555
sS'cp'
p1983
I233
sS'willis'
p1984
I25
sS'recorded'
p1985
I10
sS'nuggets'
p1986
I495
sS'assembly'
p1987
I51
sS'business'
p1988
I928
sS'asap'
p1989
I237
sS'credits'
p1990
I3
sS'1939'
p1991
I51
sS'exciting'
p1992
I56
sS'comparison'
p1993
I261
sS'central'
p1994
I270
sS'choi'
p1995
I40
sS'baughman'
p1996
I6
sS'srs'
p1997
I70
sS'srp'
p1998
I45
sS'exotica'
p1999
I298
sS'backup'
p2000
I14
sS'outlook'
p2001
I191
sS'involvement'
p2002
I3
sS'oncall'
p2003
I27
sS'your'
p2004
I3121
sS'loa'
p2005
I104
sS'forwarded'
p2006
I202
sS'area'
p2007
I102
sS'assumed'
p2008
I3
sS'bucketing'
p2009
I34
sS'start'
p2010
I173
sS'stealth'
p2011
I25
sS'cats'
p2012
I17
sS'low'
p2013
I11
sS'lot'
p2014
I72
sS'delayed'
p2015
I12
sS'punit'
p2016
I83
sS'6884'
p2017
I4
sS'trying'
p2018
I52
sS'construst'
p2019
I8
sS'hire'
p2020
I106
sS'stanford'
p2021
I1049
sS'default'
p2022
I631
sS'cleco'
p2023
I43
sS'cinergy'
p2024
I134
sS'600'
p2025
I16
sS'1201'
p2026
I80
sS'sales'
p2027
I919
sS'reliability'
p2028
I21
sS'brownbag'
p2029
I24
sS'wefa'
p2030
I93
sS'inactivation'
p2031
I11
sS'storage'
p2032
I1018
sS'mathematics'
p2033
I170
sS'you'
p2034
I2368
sS'mrha'
p2035
I16
sS'espeak'
p2036
I16
sS'phys'
p2037
I80
sS'drift'
p2038
I50
sS'registry'
p2039
I23
sS'coverage'
p2040
I9
sS'pool'
p2041
I6
sS'building'
p2042
I95
sS'ameriflash'
p2043
I270
sS'corey'
p2044
I50
sS'redux'
p2045
I3
sS'ceraweek'
p2046
I18
sS'month'
p2047
I162
sS'deadline'
p2048
I602
sS'cameron'
p2049
I17
sS'rtos'
p2050
I3
sS'pricing'
p2051
I1167
sS'foster'
p2052
I8
sS'266149'
p2053
I7
sS'fountain'
p2054
I44
sS'erisk'
p2055
I262
sS'hillarious'
p2056
I6
sS'very'
p2057
I61
sS'hodges'
p2058
I8
sS'balancing'
p2059
I25
sS'louis'
p2060
I24
sS'bridgeback'
p2061
I34
sS'prohibitions'
p2062
I126
sS'5910'
p2063
I7
sS'still'
p2064
I390
sS'colossal'
p2065
I61
sS'enhancement'
p2066
I11
sS'jedi'
p2067
I28
sS'certificates'
p2068
I227
sS'loose'
p2069
I12
sS'khanna'
p2070
I24
sS'answers'
p2071
I16
sS'iraq'
p2072
I14
sS'ahead'
p2073
I18
sS'mirant'
p2074
I6
sS'hoston'
p2075
I8
sS'arent'
p2076
I1
sS'nesbitt'
p2077
I110
sS'family'
p2078
I164
sS'put'
p2079
I10
sS'7342'
p2080
I4
sS'toys'
p2081
I21
sS'redployment'
p2082
I32
sS'chilkha'
p2083
I3
sS'takes'
p2084
I42
sS'kmid'
p2085
I9
sS'probabilities'
p2086
I50
sS'sabbaticals'
p2087
I2
sS'taken'
p2088
I2
sS'authorization'
p2089
I34
sS'linden'
p2090
I31
sS'turbo'
p2091
I55
sS'garza'
p2092
I39
sS'vp'
p2093
I80
sS'coalition'
p2094
I3
sS'nebraska'
p2095
I35
sS'budgets'
p2096
I49
sS'history'
p2097
I45
sS'sharad'
p2098
I200
sS'partner'
p2099
I100
sS'jeanie'
p2100
I2
sS'1052'
p2101
I33
sS'spreadsheet'
p2102
I270
sS'stayed'
p2103
I4
sS'ft'
p2104
I164
sS'communicating'
p2105
I6
sS'fx'
p2106
I51
sS'woodworkingtips'
p2107
I16
sS'ff'
p2108
I16
sS'fo'
p2109
I158
sS'a'
I4048
sS'workstation'
p2110
I19
sS'egp'
p2111
I9
sS'renewing'
p2112
I29
sS'egm'
p2113
I304
sS'egg'
p2114
I12
sS'egf'
p2115
I67
sS'ege'
p2116
I118
sS'eron'
p2117
I19
sS'help'
p2118
I351
sS'soon'
p2119
I53
sS'held'
p2120
I3
sS'committee'
p2121
I583
sS'enronoptions'
p2122
I114
sS'highlighted'
p2123
I6
sS'pserc'
p2124
I707
sS'lateral'
p2125
I44
sS'absence'
p2126
I26
sS'systems'
p2127
I394
sS'fool'
p2128
I61
sS'evening'
p2129
I66
sS'yo'
p2130
I69
sS'ya'
p2131
I22
sS'ye'
p2132
I32
sS'ces'
p2133
I271
sS'yr'
p2134
I20
sS'bryan'
p2135
I70
sS'holiday'
p2136
I98
sS'fully'
p2137
I3
sS'purch'
p2138
I9
sS'heavy'
p2139
I50
sS'taft'
p2140
I9
sS'bammel'
p2141
I161
sS'todd'
p2142
I13
sS'quantum'
p2143
I34
sS'columbia'
p2144
I101
sS'beyond'
p2145
I27
sS'event'
p2146
I494
sS'1603'
p2147
I9
sS'986892'
p2148
I47
sS'marcia'
p2149
I3
sS'robert'
p2150
I17
sS'since'
p2151
I5
sS'981525'
p2152
I9
sS'986899'
p2153
I9
sS'safety'
p2154
I13
sS'7'
I1748
sS'issue'
p2155
I1265
sS'ass'
p2156
I142
sS'asp'
p2157
I1
sS'dunn'
p2158
I11
sS'timeline'
p2159
I98
sS'96731'
p2160
I4
sS'pub'
p2161
I18
sS'puc'
p2162
I131
sS'basf'
p2163
I19
sS'base'
p2164
I71
sS'ask'
p2165
I124
sS'phd'
p2166
I27
sS'bash'
p2167
I84
sS'unresolved'
p2168
I136
sS'launch'
p2169
I278
sS'americas'
p2170
I211
sS'american'
p2171
I170
sS'fischer'
p2172
I3
sS'probability'
p2173
I15
sS'misc'
p2174
I89
sS'loadings'
p2175
I85
sS'miss'
p2176
I138
sS'maple'
p2177
I50
sS'arbitration'
p2178
I12
sS'985355'
p2179
I26
sS'6040'
p2180
I34
sS'station'
p2181
I49
sS'darft'
p2182
I5
sS'scheme'
p2183
I4
sS'selling'
p2184
I5
sS'zingales'
p2185
I83
sS'bowen'
p2186
I30
sS'tff'
p2187
I152
sS'basak'
p2188
I26
sS'translation'
p2189
I6
sS'financing'
p2190
I37
sS'stg'
p2191
I6
sS'neural'
p2192
I36
sS'greg'
p2193
I267
sS'ecuador'
p2194
I25
sS'garrison'
p2195
I87
sS'883'
p2196
I147
sS'boland'
p2197
I104
sS'708760'
p2198
I4
sS'urgently'
p2199
I4
sS'substantial'
p2200
I3
sS'ratings'
p2201
I5
sS'lin'
p2202
I122
sS'officers'
p2203
I2
sS'9670681'
p2204
I81
sS'liz'
p2205
I84
sS'hires'
p2206
I24
sS'quote'
p2207
I25
sS'approves'
p2208
I25
sS'sponsored'
p2209
I51
sS'lacima'
p2210
I197
sS'erequests'
p2211
I14
sS'mack'
p2212
I674
sS'approved'
p2213
I72
sS'salary'
p2214
I32
sS'qbr'
p2215
I24
sS'mobile'
p2216
I12
sS'clear'
p2217
I121
sS'divestiture'
p2218
I2
sS'fronterra'
p2219
I28
sS'clean'
p2220
I150
sS'usual'
p2221
I50
sS'physics'
p2222
I9
sS'zakup'
p2223
I41
sS'authors'
p2224
I27
sS'1266'
p2225
I422
sS'leandro'
p2226
I9
sS'kinsey'
p2227
I21
sS'completion'
p2228
I121
sS'copyright'
p2229
I23
sS'flights'
p2230
I15
sS'circle'
p2231
I98
sS'darwin'
p2232
I22
sS'hotmail'
p2233
I4
sS'conferenc'
p2234
I13
sS'9822'
p2235
I8
sS'during'
p2236
I36
sS'oxy'
p2237
I20
sS'hplr'
p2238
I41
sS'millenium'
p2239
I7
sS'interim'
p2240
I39
sS'glover'
p2241
I100
sS'hplo'
p2242
I2
sS'x'
I246
sS'forster'
p2243
I9
sS'hplc'
p2244
I336
sS'culture'
p2245
I100
sS'descriptions'
p2246
I34
sS'close'
p2247
I88
sS'constellation'
p2248
I45
sS'deploying'
p2249
I37
sS'pictures'
p2250
I109
sS'5688'
p2251
I37
sS'probably'
p2252
I5
sS'conditions'
p2253
I86
sS'piss'
p2254
I12
sS'missing'
p2255
I339
sS'zipper'
p2256
I1
sS'both'
p2257
I4
sS'collaboratory'
p2258
I120
sS'tinsley'
p2259
I21
sS'sensitive'
p2260
I132
sS'megs'
p2261
I117
sS'jeff'
p2262
I243
sS'hearning'
p2263
I95
sS'header'
p2264
I30
sS'linux'
p2265
I109
sS'shalesh'
p2266
I66
sS'wes'
p2267
I3
sS'beamont'
p2268
I22
sS'maintenance'
p2269
I110
sS'walter'
p2270
I34
sS'0004'
p2271
I34
sS'frontera'
p2272
I45
sS'modelling'
p2273
I122
sS'anthony'
p2274
I15
sS'lives'
p2275
I19
sS'ebit'
p2276
I3
sS'furrow'
p2277
I35
sS'look'
p2278
I146
sS'governor'
p2279
I114
sS'pace'
p2280
I3
sS'while'
p2281
I21
sS'mitchell'
p2282
I41
sS'guide'
p2283
I170
sS'copiers'
p2284
I13
sS'redacted'
p2285
I4
sS'astroworld'
p2286
I5
sS'albany'
p2287
I122
sS'clerical'
p2288
I36
sS'981295'
p2289
I10
sS'grant'
p2290
I259
sS'283939'
p2291
I10
sS'lemmons'
p2292
I7
sS'grand'
p2293
I52
sS'marcello'
p2294
I8
sS'conflict'
p2295
I75
sS'used'
p2296
I6
sS'temporary'
p2297
I166
sS'bonus'
p2298
I56
sS'986240'
p2299
I8
sS'002'
p2300
I5
sS'revisons'
p2301
I8
sS'cleaning'
p2302
I51
sS'plugs'
p2303
I172
sS'gsu'
p2304
I9
sS'database'
p2305
I451
sS'poland'
p2306
I172
sS'gsf'
p2307
I84
sS'clears'
p2308
I81
sS'settlements'
p2309
I8
sS'reviewer'
p2310
I80
sS'peakers'
p2311
I160
sS'informal'
p2312
I184
sS'meritocracy'
p2313
I75
sS'guarantees'
p2314
I49
sS'remaining'
p2315
I85
sS'rahil'
p2316
I644
sS'march'
p2317
I1810
sS'showing'
p2318
I61
sS'vandy'
p2319
I46
sS'game'
p2320
I27
sS'bout'
p2321
I2
sS'eex'
p2322
I16
sS'submission'
p2323
I123
sS'ees'
p2324
I523
sS'eel'
p2325
I37
sS'eei'
p2326
I9
sS'parade'
p2327
I2
sS'some'
p2328
I129
sS'urgent'
p2329
I909
sS'economic'
p2330
I115
sS'erms'
p2331
I38
sS'mustang'
p2332
I3
sS'frihart'
p2333
I24
sS'delivered'
p2334
I21
sS'hotels'
p2335
I103
sS'run'
p2336
I66
sS'vincenty'
p2337
I7
sS'tlapek'
p2338
I25
sS'processing'
p2339
I163
sS'stem'
p2340
I495
sS'cgs'
p2341
I6
sS'cgt'
p2342
I12
sS'ids'
p2343
I13
sS'simulation'
p2344
I326
sS'messaging'
p2345
I47
sS'block'
p2346
I256
sS'disclosure'
p2347
I19
sS'pgtt'
p2348
I44
sS'within'
p2349
I54
sS'statistics'
p2350
I6
sS'computer'
p2351
I393
sS'renewal'
p2352
I105
sS'statistica'
p2353
I17
sS'consultation'
p2354
I29
sS'withholding'
p2355
I12
sS'larry'
p2356
I16
sS'pwc'
p2357
I61
sS'russian'
p2358
I30
sS'info'
p2359
I1288
sS'uts'
p2360
I63
sS'ordered'
p2361
I94
sS'metals'
p2362
I450
sS'lindholm'
p2363
I33
sS'cotton'
p2364
I23
sS'objection'
p2365
I2
sS'application'
p2366
I455
sS'nat'
p2367
I60
sS'department'
p2368
I134
sS'dashes'
p2369
I2
sS'draw'
p2370
I7
sS'calculating'
p2371
I110
sS'critiques'
p2372
I152
sS'visits'
p2373
I138
sS'regulations'
p2374
I11
sS'dram'
p2375
I35
sS'structure'
p2376
I98
sS'hanover'
p2377
I229
sS'e'
I1253
sS'dvd'
p2378
I29
sS'outing'
p2379
I35
sS'required'
p2380
I60
sS'turbines'
p2381
I148
sS'9699'
p2382
I9
sS'infringing'
p2383
I53
sS'requires'
p2384
I53
sS'katy'
p2385
I88
sS'gu'
p2386
I48
sS'oxley'
p2387
I13
sS'ge'
p2388
I44
sS'gb'
p2389
I38
sS'ga'
p2390
I264
sS'go'
p2391
I62
sS'does'
p2392
I139
sS'suite'
p2393
I30
sS'realmoney'
p2394
I14
sS'portfolios'
p2395
I147
sS'wave'
p2396
I35
sS'autohedge'
p2397
I14
sS'cellular'
p2398
I9
sS'maac'
p2399
I56
sS'positions'
p2400
I593
sS'michael'
p2401
I6
sS'assignments'
p2402
I100
sS'barbara'
p2403
I20
sS'rationalizing'
p2404
I69
sS'ze'
p2405
I7
sS'jump'
p2406
I112
sS'garberding'
p2407
I3
sS'click'
p2408
I12
sS'cell'
p2409
I206
sS'marketer'
p2410
I61
sS'529159'
p2411
I46
sS'shoreline'
p2412
I150
sS'commercial'
p2413
I116
sS'9842'
p2414
I11
sS'hotlist'
p2415
I141
sS'northern'
p2416
I12
sS'1534'
p2417
I29
sS'products'
p2418
I461
sS'gene'
p2419
I5
sS'nstar'
p2420
I11
sS'addresses'
p2421
I57
sS'clark'
p2422
I10
sS'osmielam'
p2423
I7
sS'win'
p2424
I18
sS'manage'
p2425
I24
sS'clara'
p2426
I44
sS'wip'
p2427
I13
sS'singing'
p2428
I10
sS'announced'
p2429
I28
sS'remains'
p2430
I23
sS'adequacy'
p2431
I56
sS'vehicle'
p2432
I4
sS'hydro'
p2433
I18
sS'econ'
p2434
I39
sS'timesheet'
p2435
I79
sS'mitsubishi'
p2436
I10
sS'fvor'
p2437
I7
sS'announcing'
p2438
I168
sS'ride'
p2439
I75
sS'meet'
p2440
I77
sS'gaslift'
p2441
I6
sS'control'
p2442
I17
sS'kenny'
p2443
I8
sS'links'
p2444
I34
sS'providers'
p2445
I34
sS'whalley'
p2446
I105
sS'spvs'
p2447
I7
sS'pulling'
p2448
I3
sS'documenting'
p2449
I3
sS'poetry'
p2450
I59
sS'arrangement'
p2451
I143
sS'649741'
p2452
I11
sS'farm'
p2453
I21
sS'monitoring'
p2454
I21
sS'981318'
p2455
I9
sS'agenda'
p2456
I977
sS'healthcare'
p2457
I93
sS'dyersdale'
p2458
I89
sS'commerical'
p2459
I18
sS'trspt'
p2460
I11
sS'imbalance'
p2461
I175
sS'auto'
p2462
I19
sS'027'
p2463
I11
sS'lagrasta'
p2464
I1
sS'zavisch'
p2465
I4
sS'028'
p2466
I35
sS'university'
p2467
I245
sS'registrations'
p2468
I61
sS'slide'
p2469
I12
sS'crossing'
p2470
I81
sS'nationals'
p2471
I4
sS'baxter'
p2472
I83
sS'marginl'
p2473
I4
sS'globe'
p2474
I10
sS'prorated'
p2475
I1
sS'canfibre'
p2476
I17
sS'measure'
p2477
I25
sS'special'
p2478
I131
sS'mcmahon'
p2479
I13
sS'entertainment'
p2480
I8
sS'armor'
p2481
I88
sS'5310'
p2482
I65
sS'criminally'
p2483
I2
sS'cause'
p2484
I1
sS'ecf'
p2485
I12
sS'umbrella'
p2486
I77
sS'eco'
p2487
I2
sS'recommendations'
p2488
I98
sS'jill'
p2489
I18
sS'ecs'
p2490
I54
sS'ecp'
p2491
I55
sS'maths'
p2492
I130
sS'keep'
p2493
I58
sS'resumes'
p2494
I142
sS'humphrey'
p2495
I5
sS'austin'
p2496
I152
sS'prospective'
p2497
I122
sS'powerful'
p2498
I42
sS'date'
p2499
I488
sS'uribe'
p2500
I115
sS'quality'
p2501
I5
sS'management'
p2502
I1467
sS'journals'
p2503
I47
sS'relations'
p2504
I3
sS'bistineau'
p2505
I26
sS'attack'
p2506
I82
sS'pavel'
p2507
I141
sS'final'
p2508
I729
sS'beard'
p2509
I100
sS'exactly'
p2510
I3
sS'aiesec'
p2511
I340
sS'lists'
p2512
I94
sS'listo'
p2513
I13
sS'jaesoo'
p2514
I19
sS'falfurrias'
p2515
I47
sS'bei'
p2516
I26
sS'ben'
p2517
I102
sS'submitted'
p2518
I312
sS'thompsonville'
p2519
I42
sS'referral'
p2520
I18
sS'bet'
p2521
I14
sS'need'
p2522
I102
sS'tale'
p2523
I100
sS'mappings'
p2524
I25
sS'eops'
p2525
I32
sS'able'
p2526
I25
sS'purchasing'
p2527
I81
sS'truck'
p2528
I233
sS'singh'
p2529
I77
sS'mountaintop'
p2530
I81
sS'fuels'
p2531
I137
sS'nytimes'
p2532
I103
sS'expires'
p2533
I31
sS'newco'
p2534
I235
sS'vidzenija'
p2535
I18
sS'urg'
p2536
I39
sS'url'
p2537
I43
sS'upset'
p2538
I9
sS'databases'
p2539
I16
sS'emerging'
p2540
I172
sS'violation'
p2541
I5
sS'partners'
p2542
I125
sS'based'
p2543
I190
sS'launchpad'
p2544
I91
sS'hadn'
p2545
I19
sS'winner'
p2546
I16
sS'ngi'
p2547
I72
sS'creditex'
p2548
I35
sS'hector'
p2549
I18
sS'employee'
p2550
I217
sS'ngx'
p2551
I65
sS'mgi'
p2552
I21
sS'overall'
p2553
I25
sS'121'
p2554
I39
sS'fallout'
p2555
I44
sS'128'
p2556
I90
sS'procedures'
p2557
I146
sS'tbg'
p2558
I23
sS'processes'
p2559
I8
sS'dpr'
p2560
I28
sS'hiring'
p2561
I202
sS'introductions'
p2562
I35
sS'dpc'
p2563
I21
sS'processed'
p2564
I24
sS'contain'
p2565
I13
sS'449243'
p2566
I39
sS'accused'
p2567
I53
sS'tammie'
p2568
I26
sS'sirpo'
p2569
I18
sS'wichai'
p2570
I15
sS'written'
p2571
I1
sS'neither'
p2572
I67
sS'lum'
p2573
I8
sS'ken'
p2574
I271
sS'kicking'
p2575
I142
sS'key'
p2576
I38
sS'approval'
p2577
I812
sS'precious'
p2578
I21
sS'nominations'
p2579
I788
sS'monitor'
p2580
I240
sS'questionaire'
p2581
I18
sS'hits'
p2582
I106
sS'limits'
p2583
I204
sS'career'
p2584
I142
sS'presentations'
p2585
I163
sS'estimation'
p2586
I10
sS'8746'
p2587
I16
sS'tuesday'
p2588
I686
sS'8743'
p2589
I79
sS'8741'
p2590
I7
sS'8216'
p2591
I9
sS'jinbaek'
p2592
I27
sS'orig'
p2593
I110
sS'industrials'
p2594
I166
sS'addition'
p2595
I96
sS'username'
p2596
I33
sS'oto'
p2597
I13
sS'vince'
p2598
I4130
sS'releasing'
p2599
I29
sS'expenditure'
p2600
I60
sS'9860'
p2601
I31
sS'nepool'
p2602
I6
sS'transtexas'
p2603
I11
sS'hesitant'
p2604
I3
sS'secrets'
p2605
I88
sS'rohauer'
p2606
I3
sS'texas'
p2607
I1121
sS'1517'
p2608
I61
sS'1512'
p2609
I40
sS'xpress'
p2610
I34
sS'resident'
p2611
I11
sS'midcoast'
p2612
I2
sS'capture'
p2613
I240
sS'generic'
p2614
I12
sS'speaker'
p2615
I819
sS'schematic'
p2616
I150
sS'party'
p2617
I68
sS'http'
p2618
I17
sS'forgings'
p2619
I20
sS'destruction'
p2620
I1
sS'pjml'
p2621
I31
sS'paycheck'
p2622
I55
sS'transaction'
p2623
I462
sS'ashley'
p2624
I26
sS'i'
I1750
sS'schumack'
p2625
I21
sS'well'
p2626
I219
sS'amends'
p2627
I16
sS'corporation'
p2628
I1057
sS'vastar'
p2629
I114
sS'headcount'
p2630
I230
sS'modeler'
p2631
I35
sS'43'
p2632
I126
sS'sources'
p2633
I33
sS'virtual'
p2634
I30
sS'hess'
p2635
I11
sS'coordination'
p2636
I58
sS'patricia'
p2637
I25
sS'mcconnell'
p2638
I13
sS'extends'
p2639
I11
sS'edata'
p2640
I36
sS'riverside'
p2641
I21
sS'mitra'
p2642
I26
sS'kick'
p2643
I83
sS'unaccounted'
p2644
I30
sS'immediately'
p2645
I28
sS'loss'
p2646
I122
sS'lincoln'
p2647
I16
sS'lost'
p2648
I130
sS'payments'
p2649
I56
sS'martin'
p2650
I207
sS'page'
p2651
I101
sS'arbitrage'
p2652
I13
sS'shea'
p2653
I6
sS'shen'
p2654
I214
sS'bingaman'
p2655
I13
sS'library'
p2656
I268
sS'tycholiz'
p2657
I8
sS'home'
p2658
I326
sS'peter'
p2659
I10
sS'leery'
p2660
I19
sS'competitor'
p2661
I64
sS'webcafe'
p2662
I11
sS'hannon'
p2663
I17
sS'dinari'
p2664
I23
sS'limitations'
p2665
I6
sS'skunkworks'
p2666
I9
sS'journal'
p2667
I8
sS'monetary'
p2668
I21
sS'expansion'
p2669
I30
sS'rodeo'
p2670
I10
sS'dominion'
p2671
I39
sS'5333'
p2672
I26
sS'restatement'
p2673
I69
sS'additions'
p2674
I5
sS'utility'
p2675
I8
sS'perlman'
p2676
I4
sS'daniels'
p2677
I86
sS'imperial'
p2678
I13
sS'accountant'
p2679
I11
sS'notices'
p2680
I21
sS'north'
p2681
I173
sS'hr'
p2682
I214
sS'astro'
p2683
I15
sS'hi'
p2684
I510
sS'gain'
p2685
I5
sS'hl'
p2686
I166
sS'hc'
p2687
I23
sS'overflow'
p2688
I31
sS'astra'
p2689
I4
sS'he'
p2690
I81
sS'worldpower'
p2691
I47
sS'signed'
p2692
I46
sS'cruel'
p2693
I11
sS'converted'
p2694
I3
sS'limit'
p2695
I140
sS'piece'
p2696
I2
sS'evals'
p2697
I34
sS'marketplace'
p2698
I40
sS'upsets'
p2699
I11
sS'twist'
p2700
I17
sS'orillion'
p2701
I24
sS'eric'
p2702
I3
sS'authority'
p2703
I84
sS'diego'
p2704
I2
sS'functions'
p2705
I6
sS'rumors'
p2706
I6
sS'gonzalez'
p2707
I78
sS'esearch'
p2708
I19
sS'star'
p2709
I145
sS'karolyi'
p2710
I17
sS'stay'
p2711
I46
sS'tailgate'
p2712
I24
sS'friends'
p2713
I129
sS'ssmb'
p2714
I128
sS'dewbre'
p2715
I15
sS'tomcat'
p2716
I23
sS'bcf'
p2717
I10
sS'persistent'
p2718
I88
sS'portion'
p2719
I4
sS'validation'
p2720
I75
sS'bcp'
p2721
I58
sS'dissolution'
p2722
I15
sS'protest'
p2723
I19
sS'asian'
p2724
I187
sS'battleground'
p2725
I10
sS'whose'
p2726
I49
sS'amr'
p2727
I35
sS'aug'
p2728
I238
sS'hgpl'
p2729
I20
sS'presents'
p2730
I19
sS'swap'
p2731
I143
sS'sorry'
p2732
I67
sS'accum'
p2733
I14
sS'updated'
p2734
I486
sS'rescue'
p2735
I33
sS'activation'
p2736
I15
sS'connects'
p2737
I6
sS'enside'
p2738
I65
sS'stolen'
p2739
I74
sS'updates'
p2740
I269
sS'companies'
p2741
I206
sS'solution'
p2742
I75
sS'frozen'
p2743
I9
sS'ups'
p2744
I2
sS'force'
p2745
I26
sS'japanese'
p2746
I136
sS'likely'
p2747
I3
sS'entergy'
p2748
I52
sS'reiterat'
p2749
I25
sS'new'
p2750
I4391
sS'net'
p2751
I232
sS'ever'
p2752
I4
sS'relationships'
p2753
I54
sS'mec'
p2754
I122
sS'neves'
p2755
I120
sS'men'
p2756
I54
sS'sddp'
p2757
I108
sS'gladewater'
p2758
I20
sS'met'
p2759
I39
sS'nanny'
p2760
I26
sS'active'
p2761
I6
sS'100'
p2762
I10
sS'101'
p2763
I8
sS'mex'
p2764
I70
sS'104'
p2765
I81
sS'luther'
p2766
I5
sS'biking'
p2767
I24
sS'credit'
p2768
I1867
sS'cindy'
p2769
I6
sS'permit'
p2770
I28
sS'bayer'
p2771
I14
sS'newvatrfacs'
p2772
I27
sS'ipps'
p2773
I118
sS'county'
p2774
I2
sS'counts'
p2775
I745
sS'receivable'
p2776
I20
sS'7268'
p2777
I25
sS'call'
p2778
I1555
sS'calm'
p2779
I4
sS'posting'
p2780
I115
sS'training'
p2781
I406
sS'killam'
p2782
I33
sS'ward'
p2783
I63
sS'9748'
p2784
I3
sS'room'
p2785
I218
sS'rights'
p2786
I12
sS'setup'
p2787
I153
sS'candlestick'
p2788
I23
sS'worth'
p2789
I9
sS'oleg'
p2790
I5
sS'exceptions'
p2791
I47
sS'roos'
p2792
I138
sS'root'
p2793
I27
sS'give'
p2794
I28
sS'stressing'
p2795
I39
sS'seacrest'
p2796
I74
sS'aging'
p2797
I20
sS'argonne'
p2798
I120
sS'pogo'
p2799
I7
sS'january'
p2800
I713
sS'answer'
p2801
I6
sS'octanes'
p2802
I11
sS'replacing'
p2803
I4
sS'mahonia'
p2804
I3
sS'thankyou'
p2805
I114
sS'president'
p2806
I246
sS'tradespark'
p2807
I14
sS'purchase'
p2808
I621
sS'third'
p2809
I56
sS'sithe'
p2810
I62
sS'goodbye'
p2811
I5
sS'operations'
p2812
I665
sS'belowconse'
p2813
I57
sS'seeligson'
p2814
I29
sS'before'
p2815
I22
sS'rescheduled'
p2816
I15
sS'personal'
p2817
I235
sS'better'
p2818
I32
sS'idash'
p2819
I7
sS'effot'
p2820
I37
sS'weeks'
p2821
I41
sS'academics'
p2822
I11
sS'5999'
p2823
I5
sS'baylor'
p2824
I155
sS'cornhusker'
p2825
I795
sS'went'
p2826
I3
sS'side'
p2827
I32
sS'bond'
p2828
I40
sS'mandates'
p2829
I12
sS'trading'
p2830
I1453
sS'navy'
p2831
I71
sS'clauses'
p2832
I30
sS'restricted'
p2833
I286
sS'crucial'
p2834
I2
sS'content'
p2835
I510
sS'patricks'
p2836
I36
sS'exxonmobil'
p2837
I21
sS'turning'
p2838
I2
sS'linear'
p2839
I34
sS'resume'
p2840
I2404
sS'ncph'
p2841
I10
sS'greatwood'
p2842
I6
sS'246'
p2843
I1
sS'240'
p2844
I42
sS'messages'
p2845
I6
sS'000'
p2846
I211
sS'iso'
p2847
I129
sS'liquids'
p2848
I86
sS'stewart'
p2849
I111
sS'hoop'
p2850
I38
sS'thereof'
p2851
I6
sS'hook'
p2852
I1
sS'agrm'
p2853
I6
sS'guadalupe'
p2854
I167
sS'recruiting'
p2855
I452
sS'0067'
p2856
I18
sS'unfinaled'
p2857
I18
sS'febo'
p2858
I8
sS'cilco'
p2859
I85
sS'begins'
p2860
I32
sS'skilling'
p2861
I389
sS'extracting'
p2862
I6
sS'mini'
p2863
I5
sS'powerits'
p2864
I4
sS'mine'
p2865
I91
sS'ming'
p2866
I176
sS'churn'
p2867
I84
sS'suncor'
p2868
I28
sS'tells'
p2869
I3
sS'fitting'
p2870
I4
sS'heaney'
p2871
I12
sS'tunnels'
p2872
I12
sS'reimbursement'
p2873
I41
sS'assisting'
p2874
I4
sS'don'
p2875
I198
sS'doc'
p2876
I131
sS'm'
I464
sS'timekeeping'
p2877
I6
sS'dox'
p2878
I3
sS'points'
p2879
I152
sS'principle'
p2880
I2
sS'mailing'
p2881
I50
sS'dow'
p2882
I100
sS'dot'
p2883
I6
sS'cresendo'
p2884
I12
sS'nevada'
p2885
I16
sS'northeast'
p2886
I28
sS'weekends'
p2887
I12
sS'sezgen'
p2888
I28
sS'sugar'
p2889
I1
sS'folks'
p2890
I22
sS'coast'
p2891
I126
sS'christopher'
p2892
I9
sS'8022'
p2893
I10
sS'15'
p2894
I1043
sS'hvince'
p2895
I17
sS'submittal'
p2896
I52
sS'bag'
p2897
I311
sS'bad'
p2898
I104
sS'bac'
p2899
I44
sS'questions'
p2900
I317
sS'reference'
p2901
I15
sS'testing'
p2902
I100
sS'decided'
p2903
I42
sS'suemar'
p2904
I13
sS'conferencia'
p2905
I16
sS'hydrocarbon'
p2906
I50
sS'subject'
p2907
I378
sS'02'
p2908
I250
sS'03'
p2909
I288
sS'00'
p2910
I4671
sS'01'
p2911
I19448
sS'06'
p2912
I311
sS'07'
p2913
I426
sS'04'
p2914
I474
sS'05'
p2915
I1188
sS'08'
p2916
I244
sS'09'
p2917
I1463
sS'eott'
p2918
I23
sS'summaries'
p2919
I5
sS'sais'
p2920
I3
sS'timeframe'
p2921
I36
sS'amitava'
p2922
I88
sS'vows'
p2923
I4
sS'vernon'
p2924
I55
sS'finanasowa'
p2925
I26
sS'385'
p2926
I4
sS'modeling'
p2927
I281
sS'suggested'
p2928
I1
sS'frbny'
p2929
I35
sS'against'
p2930
I138
sS'contribution'
p2931
I19
sS'gwen'
p2932
I118
sS'ardmore'
p2933
I11
sS'eurolds'
p2934
I217
sS'initiative'
p2935
I10
sS'aftermath'
p2936
I28
sS'roeder'
p2937
I7
sS'puts'
p2938
I7
sS'basis'
p2939
I29
sS'three'
p2940
I147
sS'trigger'
p2941
I17
sS'petronas'
p2942
I172
sS'interest'
p2943
I216
sS'basic'
p2944
I54
sS'basin'
p2945
I264
sS'keyspan'
p2946
I89
sS'website'
p2947
I75
sS'belfer'
p2948
I6
sS'166'
p2949
I93
sS'grms'
p2950
I50
sS'exception'
p2951
I424
sS'tang'
p2952
I75
sS'neal'
p2953
I5
sS'transformation'
p2954
I43
sS'auction'
p2955
I49
sS'near'
p2956
I158
sS'itinerary'
p2957
I169
sS'balance'
p2958
I78
sS'study'
p2959
I660
sS'seven'
p2960
I9
sS'mexico'
p2961
I287
sS'ip'
p2962
I2
sS'is'
p2963
I1691
sS'ir'
p2964
I92
sS'it'
p2965
I1214
sS'iv'
p2966
I938
sS'ii'
p2967
I587
sS'im'
p2968
I362
sS'il'
p2969
I10
sS'in'
p2970
I4581
sS'ib'
p2971
I11
sS'id'
p2972
I151
sS'if'
p2973
I184
sS'269123'
p2974
I131
sS'make'
p2975
I2
sS'quant'
p2976
I47
sS'sidelines'
p2977
I20
sS'mentor'
p2978
I27
sS'netcoonline'
p2979
I75
sS'sacramento'
p2980
I34
sS'9760'
p2981
I8
sS'kin'
p2982
I13
sS'bloomberg'
p2983
I60
sS'9769'
p2984
I6
sS'opportunity'
p2985
I639
sS'thoughts'
p2986
I260
sS'kid'
p2987
I9
sS'jobsonline'
p2988
I30
sS'presto'
p2989
I74
sS'waterdesk'
p2990
I48
sS'practices'
p2991
I43
sS'claims'
p2992
I137
sS'800'
p2993
I35
sS'investments'
p2994
I86
sS'left'
p2995
I46
sS'protocol'
p2996
I2
sS'just'
p2997
I129
sS'yen'
p2998
I6
sS'sporting'
p2999
I66
sS'986563'
p3000
I20
sS'bandwidth'
p3001
I187
sS'yes'
p3002
I22
sS'yet'
p3003
I34
sS'impending'
p3004
I30
sS'candidate'
p3005
I516
sS'copanno'
p3006
I9
sS'save'
p3007
I184
sS'ops'
p3008
I46
sS'supervisors'
p3009
I17
sS'background'
p3010
I71
sS'govt'
p3011
I122
sS'opm'
p3012
I145
sS'yesteday'
p3013
I2
sS'1553'
p3014
I3
sS'pozdrowienia'
p3015
I15
sS'1558'
p3016
I18
sS'manual'
p3017
I21
sS'rakesh'
p3018
I10
sS'www'
p3019
I237
sS'deal'
p3020
I2840
sS'intern'
p3021
I451
sS'invoice'
p3022
I578
sS'dear'
p3023
I68
sS'grading'
p3024
I7
sS'hiezenrader'
p3025
I8
sS'notification'
p3026
I181
sS'normal'
p3027
I40
sS'tracker'
p3028
I41
sS'videoconferencing'
p3029
I81
sS'988291'
p3030
I22
sS'statistician'
p3031
I26
sS'issler'
p3032
I23
sS'super'
p3033
I275
sS'valentines'
p3034
I78
sS'selzer'
p3035
I44
sS'magazine'
p3036
I51
sS'afternoon'
p3037
I383
sS'meoh'
p3038
I17
sS'maharashtra'
p3039
I28
sS'managers'
p3040
I47
sS'formerly'
p3041
I25
sS'intellectual'
p3042
I12
sS'tejas'
p3043
I220
sS'amsterdam'
p3044
I18
sS'refined'
p3045
I108
sS'initial'
p3046
I103
sS'editor'
p3047
I43
sS'clpartners'
p3048
I6
sS'form'
p3049
I343
sS'pedricktown'
p3050
I24
sS'jhanley'
p3051
I7
sS'229'
p3052
I35
sS'981373'
p3053
I8
sS'analyst'
p3054
I700
sS'fort'
p3055
I58
sS'attached'
p3056
I170
sS'delete'
p3057
I159
sS'seneca'
p3058
I28
sS'classic'
p3059
I103
sS'covers'
p3060
I6
sS'sale'
p3061
I610
sS'anthrax'
p3062
I44
sS'floating'
p3063
I34
sS'marking'
p3064
I16
sS'holli'
p3065
I3
sS'excel'
p3066
I38
sS'sybase'
p3067
I45
sS'digital'
p3068
I178
sS'glynn'
p3069
I4
sS'insolvency'
p3070
I6
sS'utilities'
p3071
I5
sS'transfers'
p3072
I56
sS'weekend'
p3073
I257
sS'jones'
p3074
I274
sS'happening'
p3075
I12
sS'apology'
p3076
I12
sS'assume'
p3077
I9
sS'daily'
p3078
I526
sS'overdue'
p3079
I195
sS'relieve'
p3080
I36
sS'mily'
p3081
I7
sS'manager'
p3082
I320
sS'retention'
p3083
I120
sS'father'
p3084
I93
sS'countdown'
p3085
I43
sS'0'
I694
sS'finally'
p3086
I25
sS'deacero'
p3087
I46
sS'asps'
p3088
I98
sS'proj'
p3089
I32
sS'reconvene'
p3090
I19
sS'lynch'
p3091
I2
sS'join'
p3092
I5
sS'skoro'
p3093
I7
sS'did'
p3094
I15
sS'dig'
p3095
I1
sS'proposals'
p3096
I29
sS'specials'
p3097
I116
sS'item'
p3098
I16
sS'excellence'
p3099
I16
sS'dunagan'
p3100
I7
sS'round'
p3101
I13
sS'earthsat'
p3102
I31
sS'talked'
p3103
I1
sS'targets'
p3104
I100
sS'majors'
p3105
I46
sS'adds'
p3106
I36
sS'bachelier'
p3107
I27
sS'favour'
p3108
I7
sS'template'
p3109
I107
sS'international'
p3110
I175
sS'transportation'
p3111
I363
sS'deriv'
p3112
I18
sS'clerk'
p3113
I5
sS'mr'
p3114
I112
sS'congestion'
p3115
I71
sS'box'
p3116
I80
sS'boy'
p3117
I4
sS'canadian'
p3118
I144
sS'institute'
p3119
I175
sS'medicals'
p3120
I18
sS'107043'
p3121
I9
sS'suggestion'
p3122
I40
sS'bob'
p3123
I80
sS'bod'
p3124
I128
sS'hbs'
p3125
I34
sS'mpws'
p3126
I28
sS'useful'
p3127
I6
sS'statewide'
p3128
I16
sS'mscf'
p3129
I503
sS'monterrey'
p3130
I98
sS'estate'
p3131
I137
sS'visit'
p3132
I4624
sS'france'
p3133
I8
sS'insider'
p3134
I1
sS'black'
p3135
I93
sS'thru'
p3136
I184
sS'sharing'
p3137
I269
sS'551'
p3138
I37
sS'downtown'
p3139
I12
sS'effort'
p3140
I155
sS'rotational'
p3141
I18
sS'reviews'
p3142
I68
sS'wallet'
p3143
I8
sS'scifinance'
p3144
I70
sS'making'
p3145
I14
sS'claim'
p3146
I147
sS'kenneth'
p3147
I33
sS'sample'
p3148
I26
sS'council'
p3149
I29
sS'longview'
p3150
I140
sS'munk'
p3151
I141
sS'pine'
p3152
I7
sS'chemical'
p3153
I282
sS'sunday'
p3154
I62
sS'pure'
p3155
I73
sS'nyc'
p3156
I8
sS'map'
p3157
I2
sS'144'
p3158
I1
sS'mar'
p3159
I827
sS'142'
p3160
I1
sS'may'
p3161
I3498
sS'max'
p3162
I6
sS'membership'
p3163
I195
sS'guys'
p3164
I59
sS'outline'
p3165
I22
sS'20000813'
p3166
I44
sS'q'
I476
sS'switch'
p3167
I60
sS'godbole'
p3168
I25
sS'basket'
p3169
I142
sS'talk'
p3170
I112
sS'lse'
p3171
I35
sS'entity'
p3172
I105
sS'lst'
p3173
I249
sS'lsu'
p3174
I184
sS'cuts'
p3175
I56
sS'setbacks'
p3176
I8
sS'group'
p3177
I3879
sS'thank'
p3178
I676
sS'lavorato'
p3179
I103
sS'interesting'
p3180
I122
sS'coaching'
p3181
I31
sS'listing'
p3182
I98
sS'policy'
p3183
I325
sS'mail'
p3184
I421
sS'romine'
p3185
I80
sS'conoco'
p3186
I27
sS'finance'
p3187
I1298
sS'lunch'
p3188
I479
sS'safari'
p3189
I24
sS'btrieve'
p3190
I75
sS'killed'
p3191
I14
sS'developments'
p3192
I7
sS'9707'
p3193
I91
sS'rock'
p3194
I8
sS'824'
p3195
I26
sS'xls'
p3196
I161
sS'bridging'
p3197
I21
sS'adres'
p3198
I2
sS'chilkina'
p3199
I12
sS'summary'
p3200
I968
sS'description'
p3201
I32
sS'canada'
p3202
I416
sS'living'
p3203
I67
sS'valdez'
p3204
I13
sS'griebling'
p3205
I154
sS'valdes'
p3206
I49
sS'correct'
p3207
I7
sS'earlier'
p3208
I24
sS'96035668'
p3209
I108
sS'alatorre'
p3210
I29
sS'california'
p3211
I2725
sS'trademarks'
p3212
I90
sS'org'
p3213
I258
sS'keith'
p3214
I24
sS'realignment'
p3215
I29
sS'language'
p3216
I161
sS'ministry'
p3217
I2
sS'thing'
p3218
I58
sS'loretta'
p3219
I49
sS'think'
p3220
I15
sS'first'
p3221
I891
sS'exotic'
p3222
I25
sS'question'
p3223
I614
sS'rachel'
p3224
I13
sS'intrastate'
p3225
I231
sS'carry'
p3226
I36
sS'calpine'
p3227
I635
sS'little'
p3228
I11
sS'law'
p3229
I72
sS'flatiron'
p3230
I80
sS'hubco'
p3231
I107
sS'anyone'
p3232
I142
sS'plains'
p3233
I47
sS'mining'
p3234
I19
sS'memo'
p3235
I542
sS'greenberg'
p3236
I6
sS'11'
p3237
I15801
sS'10'
p3238
I3258
sS'13'
p3239
I310
sS'12'
p3240
I1205
sS'illegality'
p3241
I3
sS'14'
p3242
I651
sS'17'
p3243
I1433
sS'16'
p3244
I691
sS'19'
p3245
I2251
sS'18'
p3246
I796
sS'protected'
p3247
I19
sS'venture'
p3248
I78
sS'were'
p3249
I6
sS'gathering'
p3250
I81
sS'topics'
p3251
I95
sS'dash'
p3252
I330
sS'kevin'
p3253
I50
sS'queensl'
p3254
I34
sS'speakers'
p3255
I136
sS'datren'
p3256
I102
sS'makkai'
p3257
I10
sS'potential'
p3258
I250
sS'performance'
p3259
I1241
sS'channel'
p3260
I83
sS'201'
p3261
I18
sS'200'
p3262
I101
sS'203'
p3263
I5
sS'202'
p3264
I26
sS'roster'
p3265
I49
sS'track'
p3266
I258
sS'208'
p3267
I1
sS'correlation'
p3268
I12
sS'paid'
p3269
I62
sS'sheets'
p3270
I26
sS'tract'
p3271
I39
sS'tracy'
p3272
I44
sS'beth'
p3273
I4
sS'sutton'
p3274
I10
sS'typeset'
p3275
I20
sS'rating'
p3276
I56
sS'shot'
p3277
I9
sS'show'
p3278
I151
sS'delta'
p3279
I159
sS'contemporary'
p3280
I59
sS'3658'
p3281
I1
sS'corner'
p3282
I117
sS'mops'
p3283
I6
sS'data'
p3284
I1195
sS'feng'
p3285
I28
sS'0325567'
p3286
I81
sS'weatherwise'
p3287
I21
sS'krebs'
p3288
I3
sS'treasury'
p3289
I49
sS'ranking'
p3290
I38
sS'muni'
p3291
I6
sS'get'
p3292
I732
sS'contracts'
p3293
I617
sS'reps'
p3294
I20
sS'gen'
p3295
I22
sS'yield'
p3296
I28
sS'morning'
p3297
I464
sS'deferral'
p3298
I22
sS'declared'
p3299
I68
sS'sear'
p3300
I27
sS'seat'
p3301
I58
sS'sean'
p3302
I74
sS'seac'
p3303
I16
sS'calendar'
p3304
I111
sS'marysi'
p3305
I2
sS'forecast'
p3306
I108
sS'kristal'
p3307
I30
sS'reading'
p3308
I4
sS'tux'
p3309
I4
sS'infrastructure'
p3310
I14
sS'august'
p3311
I1242
sS'parent'
p3312
I190
sS'approvals'
p3313
I93
sS'jv'
p3314
I6
sS'kristan'
p3315
I2
sS'jr'
p3316
I106
sS'killing'
p3317
I160
sS'kirstee'
p3318
I19
sS'ja'
p3319
I7
sS'785'
p3320
I39
sS'dates'
p3321
I164
sS'trader'
p3322
I154
sS'trades'
p3323
I48
sS'tour'
p3324
I276
sS'saguaro'
p3325
I16
sS'dated'
p3326
I79
sS'breakfasts'
p3327
I21
sS'forecasting'
p3328
I115
sS'cancel'
p3329
I24
sS'specializing'
p3330
I46
sS'unusual'
p3331
I4
sS'marc'
p3332
I13
sS'cqg'
p3333
I4
sS'ucla'
p3334
I23
sS'mark'
p3335
I540
sS'workshop'
p3336
I279
sS'mary'
p3337
I27
sS'shopping'
p3338
I35
sS'ubswenergy'
p3339
I216
sS'tibco'
p3340
I9
sS'those'
p3341
I4
sS'associates'
p3342
I201
sS'1450'
p3343
I21
sS'cancelled'
p3344
I42
sS'indutrial'
p3345
I16
sS'margin'
p3346
I272
sS'1459'
p3347
I6
sS'pjm'
p3348
I299
sS'conferences'
p3349
I148
sS'coffee'
p3350
I26
sS'middle'
p3351
I36
sS'lavo'
p3352
I8
sS'different'
p3353
I64
sS'pat'
p3354
I58
sS'pay'
p3355
I70
sS'same'
p3356
I41
sS'speech'
p3357
I89
sS'leppard'
p3358
I91
sS'epmi'
p3359
I60
sS'pan'
p3360
I19
sS'jeffrey'
p3361
I305
sS'oil'
p3362
I2155
sS'hilcorp'
p3363
I14
sS'running'
p3364
I28
sS'totally'
p3365
I28
sS'macro'
p3366
I34
sS'markup'
p3367
I2
sS'mortgages'
p3368
I20
sS'989824'
p3369
I10
sS'989826'
p3370
I5
sS'gates'
p3371
I9
sS'adjustments'
p3372
I74
sS'enrononline'
p3373
I590
sS'woodworking'
p3374
I35
sS'aspect'
p3375
I67
sS'mcdonald'
p3376
I50
sS'4'
I3306
sS'jake'
p3377
I13
sS'ffvols'
p3378
I28
sS'income'
p3379
I7
sS'mou'
p3380
I28
sS'simmons'
p3381
I63
sS'grid'
p3382
I18
sS'mom'
p3383
I9
sS'railroad'
p3384
I81
sS'christina'
p3385
I13
sS'lightning'
p3386
I4
sS'thorpe'
p3387
I13
sS'either'
p3388
I9
sS'wigas'
p3389
I12
sS'erase'
p3390
I37
sS'93836'
p3391
I95
sS'zisman'
p3392
I43
sS'matching'
p3393
I51
sS'octane'
p3394
I19
sS'carmona'
p3395
I18
sS'tenaska'
p3396
I1317
sS'confirm'
p3397
I276
sS'kmi'
p3398
I13
sS'kmv'
p3399
I23
sS'critical'
p3400
I24
sS'jennings'
p3401
I115
sS'broker'
p3402
I74
sS'atmic'
p3403
I48
sS'raptor'
p3404
I67
sS'william'
p3405
I18
sS'island'
p3406
I25
sS'mixer'
p3407
I21
sS'roan'
p3408
I56
sS'road'
p3409
I94
sS'1587'
p3410
I7
sS'laureles'
p3411
I10
sS'deadlines'
p3412
I15
sS'mornings'
p3413
I40
sS'strikes'
p3414
I32
sS'1594'
p3415
I6
sS'1591'
p3416
I36
sS'total_of_word'
p3417
I1480154
sS'netting'
p3418
I243
sS'deer'
p3419
I256
sS'deep'
p3420
I27
sS'general'
p3421
I551
sS'shrivastava'
p3422
I476
sS'file'
p3423
I205
sS'fill'
p3424
I21
sS'again'
p3425
I307
sS'amendments'
p3426
I408
sS'personnel'
p3427
I79
sS'field'
p3428
I255
sS'broking'
p3429
I5
sS'weathereffects'
p3430
I17
sS'ansi'
p3431
I64
sS'important'
p3432
I956
sS'elastomers'
p3433
I19
sS'chris'
p3434
I49
sS'remote'
p3435
I179
sS'assets'
p3436
I245
sS'corhshucker'
p3437
I20
sS'zimin'
p3438
I14
sS'6461'
p3439
I2
sS'xnav'
p3440
I1
sS'resale'
p3441
I14
sS'u'
I341
sS'resolution'
p3442
I41
sS'forget'
p3443
I40
sS'dollar'
p3444
I7
sS'6722'
p3445
I41
sS'6725'
p3446
I29
sS'talks'
p3447
I66
sS'alberto'
p3448
I34
sS'enjoying'
p3449
I18
sS'demers'
p3450
I47
sS'praca'
p3451
I83
sS'returning'
p3452
I49
sS'989614'
p3453
I68
sS'colwell'
p3454
I29
sS'fall'
p3455
I201
sS'difference'
p3456
I238
sS'steve'
p3457
I108
sS'wsj'
p3458
I3
sS'applicable'
p3459
I14
sS'weatherdelta'
p3460
I74
sS'variances'
p3461
I71
sS'fastow'
p3462
I21
sS'burger'
p3463
I15
sS'zero'
p3464
I31
sS'perspective'
p3465
I28
sS'lawyer'
p3466
I226
sS'further'
p3467
I147
sS'schlesinger'
p3468
I24
sS'abb'
p3469
I88
sS'marketwatch'
p3470
I15
sS'abs'
p3471
I22
sS'tribute'
p3472
I116
sS'public'
p3473
I136
sS'5005'
p3474
I5
sS'component'
p3475
I26
sS'rangel'
p3476
I19
sS'ranger'
p3477
I3
sS'operating'
p3478
I370
sS'96008903'
p3479
I30
sS'publishes'
p3480
I17
sS'search'
p3481
I30
sS'bible'
p3482
I102
sS'fwd'
p3483
I2367
sS'labaume'
p3484
I13
sS'published'
p3485
I21
sS'cornshucker'
p3486
I14
sS'rollover'
p3487
I76
sS'marol'
p3488
I101
sS'two'
p3489
I428
sS'governance'
p3490
I119
sS'comparing'
p3491
I3
sS'splash'
p3492
I36
sS'diamond'
p3493
I11
sS'tasking'
p3494
I43
sS'tingleaf'
p3495
I10
sS'town'
p3496
I25
sS'hour'
p3497
I49
sS'cluster'
p3498
I17
sS'recall'
p3499
I2
sS'pgev'
p3500
I19
sS'paragraph'
p3501
I18
sS'del'
p3502
I11
sS'dec'
p3503
I290
sS'purchases'
p3504
I321
sS'compare'
p3505
I46
sS'prods'
p3506
I15
sS'mtgs'
p3507
I22
sS'socal'
p3508
I28
sS'fiorina'
p3509
I538
sS'numbers'
p3510
I282
sS'robinson'
p3511
I74
sS'needs'
p3512
I297
sS'stig'
p3513
I32
sS'acts'
p3514
I26
sS'csa'
p3515
I11
sS'maps'
p3516
I44
sS'jafry'
p3517
I644
sS'csu'
p3518
I18
sS'cst'
p3519
I54
sS'advice'
p3520
I179
sS'blood'
p3521
I19
sS'faculty'
p3522
I177
sS'03101'
p3523
I4
sS'response'
p3524
I276
sS'coal'
p3525
I201
sS'responsibility'
p3526
I49
sS'kcs'
p3527
I27
sS'already'
p3528
I27
sS'through'
p3529
I85
sS'24'
p3530
I1152
sS'25'
p3531
I1230
sS'26'
p3532
I1205
sS'27'
p3533
I759
sS'20'
p3534
I1966
sS'21'
p3535
I2037
sS'edycja'
p3536
I75
sS'adios'
p3537
I14
sS'28'
p3538
I1636
sS'29'
p3539
I1622
sS'peng'
p3540
I22
sS'reuters'
p3541
I82
sS'penn'
p3542
I17
sS'pcg'
p3543
I8
sS'good'
p3544
I584
sS'seeking'
p3545
I107
sS'repetto'
p3546
I14
sS'compound'
p3547
I23
sS'inception'
p3548
I36
sS'perkins'
p3549
I13
sS'989842'
p3550
I17
sS'portz'
p3551
I3
sS'sterling'
p3552
I23
sS'everyone'
p3553
I10
sS'house'
p3554
I40
sS'energy'
p3555
I6628
sS'idea'
p3556
I124
sS'hara'
p3557
I4
sS'extended'
p3558
I27
sS'portland'
p3559
I304
sS'hart'
p3560
I50
sS'insurance'
p3561
I190
sS'frbnyrmagl'
p3562
I67
sS'projected'
p3563
I89
sS'investinme'
p3564
I19
sS'participants'
p3565
I49
sS'sloan'
p3566
I39
sS'evaluation'
p3567
I190
sS'lawrence'
p3568
I25
sS'disposition'
p3569
I130
sS'backed'
p3570
I8
sS'beginning'
p3571
I79
sS'castaneda'
p3572
I57
sS'benefits'
p3573
I238
sS'984132'
p3574
I359
sS'needing'
p3575
I12
sS'981459'
p3576
I84
sS'raptors'
p3577
I15
sS'copper'
p3578
I89
sS'done'
p3579
I161
sS'haedicke'
p3580
I10
sS'regulation'
p3581
I55
sS'krapels'
p3582
I115
sS'statement'
p3583
I181
sS'6599'
p3584
I46
sS'lease'
p3585
I61
sS'spinaker'
p3586
I71
sS'programs'
p3587
I52
sS'park'
p3588
I268
sS'part'
p3589
I154
sS'plsrsvp'
p3590
I102
sS'woops'
p3591
I8
sS'oxan'
p3592
I107
sS'b'
I768
sS'70550'
p3593
I18
sS'peaker'
p3594
I31
sS'markus'
p3595
I5
sS'confirms'
p3596
I33
sS'orders'
p3597
I40
sS'paths'
p3598
I10
sS'collateralized'
p3599
I20
sS'vng'
p3600
I3
sS'augl'
p3601
I17
sS'clickathome'
p3602
I76
sS'chart'
p3603
I287
sS'most'
p3604
I612
sS'charm'
p3605
I112
sS'services'
p3606
I476
sS'yanowski'
p3607
I8
sS'erequest'
p3608
I30
sS'mediation'
p3609
I71
sS'kn'
p3610
I11
sS'sector'
p3611
I41
sS'thomas'
p3612
I187
sS'obligations'
p3613
I42
sS'businesses'
p3614
I13
sS'screenshots'
p3615
I14
sS'networks'
p3616
I49
sS'merger'
p3617
I132
sS'being'
p3618
I21
sS'generators'
p3619
I20
sS'8'
I1144
sS'express'
p3620
I30
sS'restart'
p3621
I125
sS'92155'
p3622
I11
sS'spikes'
p3623
I30
sS'transitional'
p3624
I12
sS'garcia'
p3625
I13
sS'common'
p3626
I242
sS'allocations'
p3627
I432
sS'californian'
p3628
I5
sS'acutals'
p3629
I3
sS'individual'
p3630
I61
sS'leslie'
p3631
I11
sS'forthcoming'
p3632
I4
sS'repairs'
p3633
I46
sS'expert'
p3634
I2
sS'visiting'
p3635
I659
sS'please'
p3636
I1269
sS'noles'
p3637
I4
sS'baytown'
p3638
I79
sS'responses'
p3639
I14
sS'aircraft'
p3640
I82
sS'annual'
p3641
I523
sS'foreign'
p3642
I32
sS'newsdesk'
p3643
I1351
sS'prepays'
p3644
I4
sS'simple'
p3645
I6
sS'tennessee'
p3646
I55
sS'expensive'
p3647
I3
sS'elektro'
p3648
I10
sS'meeting'
p3649
I6655
sS'gas'
p3650
I6272
sS'gap'
p3651
I227
sS'4444'
p3652
I32
sS'prices'
p3653
I652
sS'powermod'
p3654
I39
sS'pierce'
p3655
I130
sS'unify'
p3656
I350
sS'bill'
p3657
I284
sS'elections'
p3658
I213
sS'deferred'
p3659
I11
sS'fun'
p3660
I1
sS'ethylene'
p3661
I27
sS'387571'
p3662
I7
sS'ews'
p3663
I179
sS'horton'
p3664
I13
sS'development'
p3665
I273
sS'passwords'
p3666
I16
sS'assignment'
p3667
I172
sS'yesterday'
p3668
I91
sS'desks'
p3669
I19
sS'koch'
p3670
I364
sS'dart'
p3671
I2
sS'doreen'
p3672
I8
sS'koures'
p3673
I12
sS'nordic'
p3674
I48
sS'y'
I41
sS'organization'
p3675
I215
sS'spend'
p3676
I155
sS'shape'
p3677
I17
sS'alternative'
p3678
I17
sS'letting'
p3679
I7
sS'cut'
p3680
I20
sS'alternate'
p3681
I3
sS'source'
p3682
I43
sS'administrative'
p3683
I36
sS'bio'
p3684
I162
sS'big'
p3685
I299
sS'bid'
p3686
I574
sS'matters'
p3687
I26
sS'biz'
p3688
I169
sS'bit'
p3689
I33
sS'buhler'
p3690
I31
sS'privledge'
p3691
I169
sS'bambos'
p3692
I49
sS'follows'
p3693
I142
sS'indication'
p3694
I14
sS'howell'
p3695
I32
sS'rrevised'
p3696
I6
sS'back'
p3697
I253
sS'delegation'
p3698
I5
sS'setrans'
p3699
I18
sS'panenergy'
p3700
I251
sS'candle'
p3701
I58
sS'brent'
p3702
I100
sS'connectiv'
p3703
I13
sS'reclass'
p3704
I7
sS'contacts'
p3705
I70
sS'affects'
p3706
I46
sS'decision'
p3707
I430
sS'integration'
p3708
I541
sS'per'
p3709
I88
sS'pes'
p3710
I136
sS'pec'
p3711
I18
sS'300'
p3712
I16
sS'paribas'
p3713
I38
sS'continuing'
p3714
I19
sS'305'
p3715
I14
sS'gsia'
p3716
I25
sS'oec'
p3717
I11
sS'from'
p3718
I7751
sS'carbide'
p3719
I56
sS'usa'
p3720
I315
sS'extensions'
p3721
I35
sS'aquila'
p3722
I33
sS'nsf'
p3723
I76
sS'martinez'
p3724
I3
sS'reciept'
p3725
I28
sS'steven'
p3726
I7
sS'lesson'
p3727
I22
sS'bankruptcy'
p3728
I50
sS'ontario'
p3729
I2
sS'forward'
p3730
I595
sS'translate'
p3731
I13
sS'sds'
p3732
I91
sS'tindall'
p3733
I8
sS'immigration'
p3734
I27
sS'boyt'
p3735
I3
sS'requesting'
p3736
I162
sS'exploration'
p3737
I214
sS'aquilla'
p3738
I64
sS'flow'
p3739
I672
sS'engineering'
p3740
I259
sS'organizational'
p3741
I1007
sS'playgroup'
p3742
I4
sS'joao'
p3743
I120
sS'kiri'
p3744
I4
sS'functionality'
p3745
I49
sS'ellen'
p3746
I9
sS'explaining'
p3747
I13
sS'lend'
p3748
I12
sS'catex'
p3749
I146
sS'dataroom'
p3750
I17
sS'xport'
p3751
I11
sS'rulemaking'
p3752
I6
sS'3425'
p3753
I8
sS'2002'
p3754
I451
sS'2003'
p3755
I50
sS'2000'
p3756
I8436
sS'2001'
p3757
I6743
sS'jason'
p3758
I11
sS'qian'
p3759
I35
sS'cynthia'
p3760
I14
sS'announ'
p3761
I28
sS'ethink'
p3762
I50
sS'query'
p3763
I175
sS'raymoin'
p3764
I7
sS'pioneer'
p3765
I12
sS'breaches'
p3766
I2
sS'ehronline'
p3767
I76
sS'staffing'
p3768
I33
sS'arrange'
p3769
I36
sS'backtesting'
p3770
I54
sS'enroncredit'
p3771
I342
sS'warszawa'
p3772
I49
sS'dimes'
p3773
I7
sS'crow'
p3774
I44
sS'carly'
p3775
I538
sS'rivers'
p3776
I177
sS'edison'
p3777
I378
sS'chicago'
p3778
I137
sS'giving'
p3779
I87
sS'pipes'
p3780
I12
sS'cordillera'
p3781
I9
sS'access'
p3782
I1342
sS'exchange'
p3783
I110
sS'1332'
p3784
I6
sS'others'
p3785
I68
sS'extreme'
p3786
I54
sS'copel'
p3787
I53
sS'38'
p3788
I62
sS'cera'
p3789
I1591
sS'32'
p3790
I172
sS'31'
p3791
I691
sS'30'
p3792
I3448
sS'37'
p3793
I11
sS'35'
p3794
I68
sS'implement'
p3795
I25
sS'private'
p3796
I199
sS'talon'
p3797
I53
sS'decrease'
p3798
I4
sS'limo'
p3799
I4
sS'malowney'
p3800
I37
sS'resolutions'
p3801
I30
sS'mraymon'
p3802
I17
sS'masada'
p3803
I2
sS'upcoming'
p3804
I389
sS'tax'
p3805
I354
sS'payne'
p3806
I8
sS'iif'
p3807
I107
sS'prizes'
p3808
I66
sS'billed'
p3809
I41
sS'iii'
p3810
I30
sS'subscription'
p3811
I430
sS'account'
p3812
I107
sS'f'
I686
sS'tunnel'
p3813
I36
sS'gabriel'
p3814
I10
sS'parquet'
p3815
I181
sS'closing'
p3816
I160
sS'invoices'
p3817
I241
sS'effectively'
p3818
I9
sS'reserves'
p3819
I5
sS'lamb'
p3820
I11
sS'andersen'
p3821
I177
sS'gcp'
p3822
I22
sS'responsibilities'
p3823
I12
sS'forest'
p3824
I35
sS'stock'
p3825
I283
sS'profile'
p3826
I96
sS'endorsements'
p3827
I6
sS'luigi'
p3828
I15
sS'collection'
p3829
I101
sS'gentor'
p3830
I9
sS'annexes'
p3831
I20
sS'lines'
p3832
I303
sS'lined'
p3833
I20
sS'galveston'
p3834
I9
sS'institutional'
p3835
I47
sS'meter'
p3836
I5447
sS'charting'
p3837
I18
sS'nevrl'
p3838
I63
sS'phillips'
p3839
I275
sS'lc'
p3840
I191
sS'la'
p3841
I16
sS'll'
p3842
I414
sS'lm'
p3843
I9
sS'lh'
p3844
I25
sS'labor'
p3845
I7
sS'lv'
p3846
I15
sS'lt'
p3847
I27
sS'willing'
p3848
I137
sS'lp'
p3849
I276
sS'lq'
p3850
I25
sS'latitude'
p3851
I2
sS'criminal'
p3852
I17
sS'greater'
p3853
I22
sS'dan'
p3854
I4
sS'mention'
p3855
I47
sS'mandate'
p3856
I14
sS'day'
p3857
I869
sS'february'
p3858
I588
sS'exmar'
p3859
I16
sS'tues'
p3860
I139
sS'disregard'
p3861
I21
sS'infocast'
p3862
I408
sS'feldman'
p3863
I13
sS'constraints'
p3864
I53
sS'bauli'
p3865
I179
sS'renshi'
p3866
I113
sS'wade'
p3867
I44
sS'res'
p3868
I20
sS'rep'
p3869
I8
sS'rev'
p3870
I194
sS'hinojosa'
p3871
I13
sS'messenger'
p3872
I108
sS'electronics'
p3873
I28
sS'ref'
p3874
I69
sS'reg'
p3875
I9
sS'math'
p3876
I82
sS'587'
p3877
I9
sS'584'
p3878
I28
sS'frank'
p3879
I35
sS'payroll'
p3880
I22
sS'clarify'
p3881
I3
sS'confirmations'
p3882
I11
sS'copano'
p3883
I100
sS'receipts'
p3884
I33
sS'yard'
p3885
I71
sS'1431'
p3886
I27
sS'retail'
p3887
I307
sS'south'
p3888
I182
sS'pga'
p3889
I101
sS'strategic'
p3890
I59
sS'frates'
p3891
I14
sS'cogentrix'
p3892
I21
sS'iafe'
p3893
I98
sS'covenants'
p3894
I5
sS'desk'
p3895
I625
sS'georgetown'
p3896
I6
sS'annoucement'
p3897
I38
sS'gear'
p3898
I14
sS'explanation'
p3899
I3
sS'nobody'
p3900
I4
sS'environmental'
p3901
I6
sS'5892'
p3902
I176
sS'11230'
p3903
I9
sS'completes'
p3904
I25
sS'facilitie'
p3905
I37
sS'compensation'
p3906
I4
sS'bitran'
p3907
I22
sS'0492'
p3908
I3
sS'curves'
p3909
I265
sS'comfortable'
p3910
I3
sS'have'
p3911
I407
sS'frevert'
p3912
I89
sS'demonstration'
p3913
I104
sS'dallas'
p3914
I44
sS'mid'
p3915
I653
sS'oliveira'
p3916
I222
sS'325'
p3917
I16
sS'329'
p3918
I13
sS'mit'
p3919
I363
sS'valverde'
p3920
I94
sS'wicku'
p3921
I41
sS'electricxity'
p3922
I170
sS'preliminary'
p3923
I376
sS'altos'
p3924
I33
sS'sally'
p3925
I70
sS'payment'
p3926
I78
sS'sfa'
p3927
I71
sS'984179'
p3928
I25
sS'persentation'
p3929
I44
sS'segura'
p3930
I6
sS'request'
p3931
I3913
sS'inquery'
p3932
I12
sS'valuing'
p3933
I83
sS'text'
p3934
I66
sS'supported'
p3935
I19
sS'portfolio'
p3936
I91
sS'staff'
p3937
I51
sS'knowledge'
p3938
I10
sS'controls'
p3939
I83
sS'ambiguity'
p3940
I3
sS'pull'
p3941
I19
sS'3405'
p3942
I21
sS'329242'
p3943
I6
sS'portcalc'
p3944
I21
sS'985225'
p3945
I8
sS'calling'
p3946
I26
sS'53001'
p3947
I9
sS'fixed'
p3948
I13
sS'chonawee'
p3949
I7
sS'goldendale'
p3950
I18
sS'national'
p3951
I183
sS'enhanced'
p3952
I11
sS'terms'
p3953
I44
sS'swissreenergy'
p3954
I33
sS'maynard'
p3955
I20
sS'precedents'
p3956
I5
sS'maddox'
p3957
I27
sS'bruni'
p3958
I33
sS'routing'
p3959
I4
sS'settelement'
p3960
I84
sS'progress'
p3961
I138
sS'dirty'
p3962
I1
sS'caida'
p3963
I557
sS'janet'
p3964
I16
sS'deliver'
p3965
I82
sS'tobias'
p3966
I141
sS'implementing'
p3967
I77
sS'thestreet'
p3968
I69
sS'instant'
p3969
I82
sS'taking'
p3970
I1
sS'aa'
p3971
I233
sS'news'
p3972
I726
sS'tremendous'
p3973
I61
sS'copier'
p3974
I287
sS'darren'
p3975
I31
sS'permanent'
p3976
I78
sS'proposal'
p3977
I297
sS'1351'
p3978
I6
sS'climate'
p3979
I30
sS'poten'
p3980
I269
sS'assessments'
p3981
I12
sS'6487'
p3982
I19
sS'multi'
p3983
I79
sS'bye'
p3984
I8
sS'value'
p3985
I319
sS'stalin'
p3986
I16
sS'9687'
p3987
I6
sS'counterparties'
p3988
I112
sS'noncore'
p3989
I13
sS'murphy'
p3990
I11
sS'arrangements'
p3991
I34
sS'rodrigo'
p3992
I5
sS'productivity'
p3993
I42
sS'rawal'
p3994
I83
sS'canus'
p3995
I65
sS'numner'
p3996
I1
sS'games'
p3997
I16
sS'econo'
p3998
I9
sS'reporting'
p3999
I262
sS'kimberley'
p4000
I13
sS'center'
p4001
I292
sS'yates'
p4002
I10
sS'antonio'
p4003
I108
sS'yingquan'
p4004
I7
sS'procurement'
p4005
I7
sS'position'
p4006
I674
sS'kleberg'
p4007
I5
sS'mcintyre'
p4008
I40
sS'hands'
p4009
I10
sS'domestic'
p4010
I23
sS'storey'
p4011
I18
sS'underlying'
p4012
I3
sS'seats'
p4013
I7
sS'gmm'
p4014
I14
sS'lake'
p4015
I149
sS'kwi'
p4016
I182
sS'add'
p4017
I150
sS'delegations'
p4018
I10
sS'enymex'
p4019
I373
sS'match'
p4020
I3
sS'gmt'
p4021
I169
sS'resolved'
p4022
I37
sS'petrochemical'
p4023
I47
sS'fyi'
p4024
I1164
sS'tackett'
p4025
I17
sS'148376'
p4026
I33
sS'royalty'
p4027
I62
sS'doyle'
p4028
I125
sS'like'
p4029
I87
sS'karen'
p4030
I13
sS'traders'
p4031
I4
sS'works'
p4032
I170
sS'soft'
p4033
I74
sS'pko'
p4034
I10
sS'majeure'
p4035
I26
sS'recommendation'
p4036
I235
sS'supportive'
p4037
I19
sS'wincenty'
p4038
I188
sS'est'
p4039
I158
sS'jeeves'
p4040
I4
sS'garrett'
p4041
I13
sS'sdsc'
p4042
I220
sS'students'
p4043
I134
sS'esa'
p4044
I19
sS'speak'
p4045
I628
sS'hose'
p4046
I8
sS'expire'
p4047
I12
sS'9643'
p4048
I107
sS'panel'
p4049
I557
sS'about'
p4050
I726
sS'actual'
p4051
I664
sS'commitee'
p4052
I42
sS'harvard'
p4053
I175
sS'powerpoint'
p4054
I138
sS'attachments'
p4055
I17
sS'promigas'
p4056
I21
sS'enerfin'
p4057
I422
sS'buy'
p4058
I34
sS'but'
p4059
I391
sS'rajan'
p4060
I80
sS'insured'
p4061
I13
sS'transco'
p4062
I138
sS'citigroupenergy'
p4063
I33
sS'1188'
p4064
I9
sS'dangerous'
p4065
I61
sS'5427'
p4066
I33
sS'j'
I106
sS'minutes'
p4067
I140
sS'circus'
p4068
I1
sS'pig'
p4069
I55
sS'enovate'
p4070
I51
sS'accenture'
p4071
I38
sS'48'
p4072
I63
sS'46'
p4073
I26
sS'mathworks'
p4074
I150
sS'44'
p4075
I25
sS'45'
p4076
I70
sS'42'
p4077
I8
sS'detail'
p4078
I3
sS'40'
p4079
I9
sS'41'
p4080
I60
sS'oplc'
p4081
I12
sS'delainey'
p4082
I23
sS'ubs'
p4083
I770
sS'log'
p4084
I78
sS'seismic'
p4085
I145
sS'oral'
p4086
I17
sS'sempra'
p4087
I11
sS'limited'
p4088
I49
sS'kiodex'
p4089
I28
sS'ksiazki'
p4090
I41
sS'facilities'
p4091
I18
sS'bruno'
p4092
I14
sS'paris'
p4093
I38
sS'under'
p4094
I242
sS'merchant'
p4095
I55
sS'lure'
p4096
I103
sS'risk'
p4097
I2727
sS'981431'
p4098
I19
sS'upstream'
p4099
I134
sS'encounter'
p4100
I28
sS'school'
p4101
I333
sS'venue'
p4102
I61
sS'guidelines'
p4103
I120
sS'estimates'
p4104
I100
sS'direct'
p4105
I266
sS'street'
p4106
I59
sS'ecc'
p4107
I13
sS'estimated'
p4108
I111
sS'blue'
p4109
I561
sS'liberty'
p4110
I30
sS'chinking'
p4111
I88
sS'internships'
p4112
I186
sS'philippe'
p4113
I40
sS'beck'
p4114
I70
sS'path'
p4115
I206
sS'enron'
p4116
I57219
sS'property'
p4117
I16
sS'forum'
p4118
I105
sS'ventures'
p4119
I20
sS'leaves'
p4120
I35
sS'changed'
p4121
I7
sS'ect'
p4122
I104
sS'analysts'
p4123
I258
sS'changes'
p4124
I1548
sS'brandywine'
p4125
I143
sS'would'
p4126
I161
sS'hospital'
p4127
I9
sS'discrepancies'
p4128
I84
sS'asset'
p4129
I143
sS'preview'
p4130
I35
sS'assessment'
p4131
I5
sS'vps'
p4132
I5
sS'phone'
p4133
I278
sS'berney'
p4134
I16
sS'vpn'
p4135
I18
sS'must'
p4136
I8
sS'me'
p4137
I267
sS'md'
p4138
I11
sS'mg'
p4139
I326
sS'sevil'
p4140
I285
sS'mb'
p4141
I32
sS'mm'
p4142
I53
sS'midwest'
p4143
I69
sS'mw'
p4144
I200
sS'ms'
p4145
I61
sS'henry'
p4146
I42
sS'my'
p4147
I1202
sS'receivables'
p4148
I94
sS'florida'
p4149
I10
sS'dolphin'
p4150
I64
sS'orion'
p4151
I57
sS'986782'
p4152
I49
sS'scheduling'
p4153
I101
sS'times'
p4154
I74
sS'ena'
p4155
I2098
sS'end'
p4156
I1095
sS'ene'
p4157
I379
sS'enl'
p4158
I8
sS'enw'
p4159
I318
sS'gate'
p4160
I23
sS'339693'
p4161
I14
sS'shakeout'
p4162
I4
sS'dietrich'
p4163
I13
sS'salsa'
p4164
I13
sS'mesa'
p4165
I3
sS'eeos'
p4166
I31
sS'yaron'
p4167
I105
sS'complexity'
p4168
I16
sS'riskcare'
p4169
I12
sS'66349'
p4170
I4
sS'amit'
p4171
I38
sS'entex'
p4172
I340
sS'executed'
p4173
I121
sS'titman'
p4174
I10
sS'over'
p4175
I139
sS'london'
p4176
I1328
sS'thesis'
p4177
I157
sS'margining'
p4178
I3
sS'clo'
p4179
I30
sS'edith'
p4180
I26
sS'howdy'
p4181
I13
sS'cla'
p4182
I19
sS'edits'
p4183
I1
sS'tractebel'
p4184
I5
sS'szopa'
p4185
I45
sS'manangement'
p4186
I8
sS'alex'
p4187
I61
sS'chuck'
p4188
I3
sS'sherlyn'
p4189
I21
sS'affiliate'
p4190
I20
sS'victory'
p4191
I8
sS'each'
p4192
I20
sS'relocations'
p4193
I13
sS'moddeling'
p4194
I7
sS'saturday'
p4195
I333
sS'revisions'
p4196
I360
sS'washed'
p4197
I3
sS'got'
p4198
I47
sS'gov'
p4199
I32
sS'gop'
p4200
I189
sS'underwrite'
p4201
I3
sS'associate'
p4202
I847
sS'hang'
p4203
I1
sS'free'
p4204
I229
sS'fred'
p4205
I104
sS'czesc'
p4206
I46
sS'midcon'
p4207
I325
sS'seadrift'
p4208
I21
sS'wanted'
p4209
I5
sS'reinstatement'
p4210
I11
sS'deffner'
p4211
I29
sS'days'
p4212
I152
sS'priorities'
p4213
I90
sS'redline'
p4214
I25
sS'heck'
p4215
I13
sS'corrections'
p4216
I45
sS'industrial'
p4217
I596
sS'primary'
p4218
I134
sS'hearing'
p4219
I14
sS'tetco'
p4220
I273
sS'puct'
p4221
I51
sS'priority'
p4222
I45
sS'top'
p4223
I151
sS'tow'
p4224
I98
sS'kinder'
p4225
I51
sS'confirming'
p4226
I148
sS'too'
p4227
I74
sS'tom'
p4228
I69
sS'curtains'
p4229
I21
sS'tool'
p4230
I17
sS'took'
p4231
I60
sS'western'
p4232
I281
sS'classes'
p4233
I31
sS'expo'
p4234
I13
sS'expl'
p4235
I5
sS'stacey'
p4236
I11
sS'masson'
p4237
I144
sS'bridge'
p4238
I91
sS'rab'
p4239
I34
sS'rac'
p4240
I85
sS'ran'
p4241
I19
sS'ram'
p4242
I49
sS'prelminary'
p4243
I21
sS'talking'
p4244
I8
sS'leafs'
p4245
I15
sS'seminar'
p4246
I830
sS'1968'
p4247
I64
sS'98926'
p4248
I20
sS'braveheart'
p4249
I164
sS'5192'
p4250
I125
sS'client'
p4251
I359
sS'effectiveness'
p4252
I17
sS'rider'
p4253
I3
sS'ewrm'
p4254
I27
sS'dial'
p4255
I17
sS'promotions'
p4256
I439
sS'metal'
p4257
I10
sS'986315'
p4258
I82
sS'yana'
p4259
I30
sS'enterprise'
p4260
I107
sS'980417'
p4261
I9
sS'pope'
p4262
I16
sS'solutions'
p4263
I15
sS'earth'
p4264
I69
sS'availability'
p4265
I123
sS'epgt'
p4266
I96
sS'delays'
p4267
I5
sS'lodge'
p4268
I43
sS'announce'
p4269
I80
sS'oct'
p4270
I589
sS'987195'
p4271
I11
sS'watch'
p4272
I70
sS'amazon'
p4273
I81
sS'report'
p4274
I2451
sS'witaj'
p4275
I16
sS'elasticities'
p4276
I9
sS'erisks'
p4277
I31
sS'commercialization'
p4278
I64
sS'shots'
p4279
I29
sS'mergers'
p4280
I6
sS'bed'
p4281
I80
sS'nui'
p4282
I66
sS'jerseys'
p4283
I8
sS'capacity'
p4284
I262
sS'interviewing'
p4285
I50
sS'mug'
p4286
I53
sS'368'
p4287
I16
sS'hopefully'
p4288
I3
sS'approach'
p4289
I114
sS'visualization'
p4290
I53
sS'confusion'
p4291
I19
sS'boss'
p4292
I69
sS'outages'
p4293
I5
sS'creditmanager'
p4294
I14
sS'improve'
p4295
I50
sS'myer'
p4296
I13
sS'players'
p4297
I18
sS'colloquium'
p4298
I26
sS'variance'
p4299
I56
sS'expense'
p4300
I195
sS'sullivan'
p4301
I7
sS'haynes'
p4302
I12
sS'conference'
p4303
I4611
sS'roper'
p4304
I13
sS'been'
p4305
I111
sS'expected'
p4306
I84
sS'warehoused'
p4307
I3
sS'transatlantic'
p4308
I15
sS'srivastava'
p4309
I68
sS'fallon'
p4310
I13
sS'powermatch'
p4311
I29
sS'n'
I242
sS'dept'
p4312
I112
sS'rutgers'
p4313
I198
sS'procedure'
p4314
I172
sS'expenses'
p4315
I139
sS'drawback'
p4316
I36
sS'several'
p4317
I15
sS'satellite'
p4318
I140
sS'sched'
p4319
I8
sS'peaks'
p4320
I42
sS'aimone'
p4321
I11
sS'numerical'
p4322
I55
sS'buyback'
p4323
I362
sS'portal'
p4324
I75
sS'mentions'
p4325
I38487
sS'cycle'
p4326
I25
sS'shortly'
p4327
I6
sS'intercompany'
p4328
I181
sS'charlie'
p4329
I13
sS'ocean'
p4330
I49
sS'savings'
p4331
I48
sS'jean'
p4332
I16
sS'seasonal'
p4333
I160
sS'proposed'
p4334
I162
sS'laptop'
p4335
I65
sS'starting'
p4336
I146
sS'grades'
p4337
I312
sS'lapton'
p4338
I50
sS'advanced'
p4339
I34
sS'judge'
p4340
I43
sS'rumor'
p4341
I27
sS'exxon'
p4342
I300
sS'bartarya'
p4343
I18
sS'gift'
p4344
I241
sS'55'
p4345
I107
sS'57'
p4346
I16
sS'hunt'
p4347
I44
sS'50'
p4348
I1585
sS'338634'
p4349
I56
sS'offices'
p4350
I167
sS'officer'
p4351
I10
sS'ubsenergy'
p4352
I95
sS'jennifer'
p4353
I37
sS'meters'
p4354
I358
sS'election'
p4355
I179
sS'tutorial'
p4356
I15
sS'proceeding'
p4357
I16
sS'icf'
p4358
I32
sS'ice'
p4359
I72
sS'totals'
p4360
I6
sS'everything'
p4361
I3
sS'1394'
p4362
I32
sS'christmas'
p4363
I429
sS'espionage'
p4364
I43
sS'core'
p4365
I54
sS'corn'
p4366
I32
sS'hsr'
p4367
I5
sS'discount'
p4368
I31
sS'corp'
p4369
I1220
sS'eye'
p4370
I45
sS'permitted'
p4371
I3
sS'chapter'
p4372
I531
sS'cowboy'
p4373
I76
sS'attacks'
p4374
I410
sS'dinner'
p4375
I438
sS'calpx'
p4376
I42
sS'efforts'
p4377
I37
sS'runtime'
p4378
I34
sS'curry'
p4379
I12
sS'duke'
p4380
I493
sS'ppa'
p4381
I326
sS'ppi'
p4382
I117
sS'accomplishments'
p4383
I212
sS'dreyfus'
p4384
I24
sS'coastal'
p4385
I1119
sS'class'
p4386
I279
sS'anderson'
p4387
I29
sS'cultivation'
p4388
I27
sS'head'
p4389
I108
sS'differences'
p4390
I6
sS'versions'
p4391
I29
sS'bids'
p4392
I12
sS'jpmorganenergy'
p4393
I33
sS'nng'
p4394
I12
sS'expedia'
p4395
I39
sS'simulations'
p4396
I34
sS'perez'
p4397
I4
sS'annoying'
p4398
I79
sS'trip'
p4399
I551
sS'nj'
p4400
I35
sS'buzzwords'
p4401
I20
sS'no'
p4402
I1242
sS'na'
p4403
I46
sS'nc'
p4404
I14
sS'nd'
p4405
I766
sS'ng'
p4406
I51
sS'ny'
p4407
I489
sS'wellhead'
p4408
I611
sS'papers'
p4409
I136
sS'nt'
p4410
I21
sS'nu'
p4411
I27
sS'nw'
p4412
I14
sS'evergreen'
p4413
I61
sS'picture'
p4414
I113
sS'9603'
p4415
I3
sS'permitting'
p4416
I3
sS'liquidate'
p4417
I3
sS'football'
p4418
I56
sS'miscellaneous'
p4419
I20
sS'ocena'
p4420
I9
sS'maureen'
p4421
I113
sS'bullet'
p4422
I28
sS'coach'
p4423
I14
sS'rom'
p4424
I8
sS'rob'
p4425
I19
sS'roc'
p4426
I20
sS'rod'
p4427
I44
sS'focus'
p4428
I21
sS'deliveries'
p4429
I128
sS'leads'
p4430
I12
sS'roy'
p4431
I34
sS'llc'
p4432
I142
sS'colleen'
p4433
I7
sS'lla'
p4434
I3
sS'row'
p4435
I4
sS'clarification'
p4436
I48
sS'charge'
p4437
I47
sS'trustees'
p4438
I19
sS'108058'
p4439
I35
sS'cooa'
p4440
I18
sS'li'
p4441
I159
sS'whitaker'
p4442
I113
sS'level'
p4443
I17
sS'enom'
p4444
I35
sS'standards'
p4445
I35
sS'quick'
p4446
I23
sS'pmt'
p4447
I9
sS'says'
p4448
I61
sS'980439'
p4449
I179
sS'trend'
p4450
I54
sS'980437'
p4451
I9
sS'980432'
p4452
I9
sS'inland'
p4453
I106
sS'slowed'
p4454
I30
sS'pma'
p4455
I11
sS'goes'
p4456
I80
sS'reply'
p4457
I572
sS'scada'
p4458
I10
sS'costless'
p4459
I71
sS'water'
p4460
I14
sS'baseball'
p4461
I15
sS'groups'
p4462
I81
sS'mockups'
p4463
I28
sS'smothing'
p4464
I11
sS'maximising'
p4465
I12
sS'weird'
p4466
I14
sS'rafael'
p4467
I15
sS'crisis'
p4468
I311
sS'virgo'
p4469
I5
sS'msl'
p4470
I133
sS'memory'
p4471
I70
sS'australian'
p4472
I175
sS'today'
p4473
I654
sS'tocqueville'
p4474
I98
sS'vmac'
p4475
I23
sS'kerry'
p4476
I13
sS'sessions'
p4477
I56
sS'fuel'
p4478
I586
sS'teaser'
p4479
I51
sS'cases'
p4480
I19
sS'wanda'
p4481
I13
sS'sepo'
p4482
I10
sS'modified'
p4483
I40
sS'judy'
p4484
I24
sS'roundtable'
p4485
I85
sS'counting'
p4486
I3
sS'requirements'
p4487
I121
sS'whartonetevent'
p4488
I102
sS'1'
I4220
sS'sundance'
p4489
I6
sS'fourth'
p4490
I7
sS'prelim'
p4491
I71
sS'subsidiaries'
p4492
I21
sS'invitees'
p4493
I38
sS'cocktail'
p4494
I168
sS'reconfirmation'
p4495
I30
sS'informs'
p4496
I341
sS'birthday'
p4497
I87
sS'commodity'
p4498
I323
sS'joint'
p4499
I68
sS'sept'
p4500
I343
sS'102401'
p4501
I8
sS'echtenhoff'
p4502
I5
sS'representation'
p4503
I5
sS'refund'
p4504
I4
sS'joins'
p4505
I47
sS'ferc'
p4506
I725
sS'cynergy'
p4507
I6
sS'gtc'
p4508
I200
sS'apex'
p4509
I14
sS'organisation'
p4510
I56
sS'coordinates'
p4511
I11
sS'platform'
p4512
I4
sS'offers'
p4513
I145
sS'gtv'
p4514
I1485
sS'apel'
p4515
I259
sS'happened'
p4516
I19
sS'luken'
p4517
I6
sS'hamilton'
p4518
I10
sS'term'
p4519
I471
sS'midtex'
p4520
I22
sS'name'
p4521
I263
sS'individually'
p4522
I41
sS'igcc'
p4523
I6
sS'torch'
p4524
I9
sS'stubblefield'
p4525
I44
sS'catching'
p4526
I13
sS'begun'
p4527
I107
sS'986290'
p4528
I12
sS'gordan'
p4529
I20
sS'986296'
p4530
I4
sS'concur'
p4531
I32
sS'factors'
p4532
I52
sS'profit'
p4533
I8
sS'autoreply'
p4534
I2
sS'kent'
p4535
I44
sS'she'
p4536
I9
sS'eagle'
p4537
I3
sS'theory'
p4538
I55
sS'pormotions'
p4539
I3
sS'oasis'
p4540
I168
sS'impose'
p4541
I26
sS'turn'
p4542
I13
sS'crosstex'
p4543
I42
sS'place'
p4544
I38
sS'swing'
p4545
I39
sS'yamin'
p4546
I61
sS'1000'
p4547
I292
sS'sanchez'
p4548
I10
sS'suspend'
p4549
I18
sS'merrill'
p4550
I12
sS'revenue'
p4551
I9
sS'coming'
p4552
I499
sS'commissioners'
p4553
I22
sS'acct'
p4554
I7
sS'george'
p4555
I98
sS'millions'
p4556
I14
sS'surveys'
p4557
I48
sS'earthy'
p4558
I69
sS'bennington'
p4559
I3
sS'iab'
p4560
I9
sS'returns'
p4561
I40
sS'convention'
p4562
I549
sS'white'
p4563
I462
sS'briton'
p4564
I60
sS'hub'
p4565
I80
sS'season'
p4566
I139
sS'released'
p4567
I11
sS'copy'
p4568
I68
sS'wide'
p4569
I23
sS'lrci'
p4570
I2
sS'r'
I444
sS'cards'
p4571
I180
sS'pre'
p4572
I30
sS'pinnamaneni'
p4573
I31
sS'rene'
p4574
I5
sS'prc'
p4575
I945
sS'prm'
p4576
I21
sS'pro'
p4577
I88
sS'93481'
p4578
I36
sS'chlor'
p4579
I8
sS'rent'
p4580
I200
sS'any'
p4581
I94
sS'marathon'
p4582
I164
sS'exploratory'
p4583
I121
sS'ideas'
p4584
I55
sS'gkh'
p4585
I27
sS'workorder'
p4586
I23
sS'sure'
p4587
I1
sS'multiple'
p4588
I1
sS'falls'
p4589
I2
sS'connor'
p4590
I89
sS'latex'
p4591
I16
sS'considered'
p4592
I2
sS'later'
p4593
I8
sS'lisbet'
p4594
I7
sS'senior'
p4595
I7
sS'quantity'
p4596
I18
sS'nls'
p4597
I8
sS'557695'
p4598
I3
sS'spaces'
p4599
I24
sS'gulf'
p4600
I150
sS'state'
p4601
I146
sS'wood'
p4602
I85
sS'telephonhe'
p4603
I47
sS'nele'
p4604
I10
sS'dyn'
p4605
I110
sS'hedge'
p4606
I67
sS'nalin'
p4607
I310
sS'regarding'
p4608
I257
sS'purge'
p4609
I38
sS'anjam'
p4610
I353
sS'picnic'
p4611
I6
sS'connections'
p4612
I8
sS'college'
p4613
I23
sS'dealbench'
p4614
I181
sS'parking'
p4615
I103
sS'apologies'
p4616
I64
sS'stanley'
p4617
I41
sS'lng'
p4618
I682
sS'fails'
p4619
I5
sS'managing'
p4620
I417
sS'review'
p4621
I857
sS'outsourcing'
p4622
I43
sS'lonestar'
p4623
I68
sS'comp'
p4624
I7
sS'comm'
p4625
I14
sS'cities'
p4626
I37
sS'come'
p4627
I17
sS'enronanywhere'
p4628
I29
sS'22'
p4629
I1671
sS'region'
p4630
I23
sS'23'
p4631
I2014
sS'contract'
p4632
I635
sS'regressions'
p4633
I13
sS'duty'
p4634
I48
sS'color'
p4635
I233
sS'continuation'
p4636
I5
sS'period'
p4637
I84
sS'pop'
p4638
I12
sS'60'
p4639
I118
sS'65'
p4640
I111
sS'66'
p4641
I15
sS'67'
p4642
I3
sS'68'
p4643
I46
sS'turkey'
p4644
I194
sS'subscribed'
p4645
I67
sS'howard'
p4646
I306
sS'501'
p4647
I281
sS'followup'
p4648
I151
sS'andrew'
p4649
I100
sS'tiger'
p4650
I447
sS'careful'
p4651
I4
sS'pilot'
p4652
I77
sS'case'
p4653
I889
sS'hughes'
p4654
I62
sS'cash'
p4655
I347
sS'telephone'
p4656
I1201
sS'discrepancy'
p4657
I164
sS'refinery'
p4658
I33
sS'someone'
p4659
I127
sS'granted'
p4660
I5
sS'bowl'
p4661
I30
sS'check'
p4662
I269
sS'bermuda'
p4663
I2
sS'buys'
p4664
I12
sS'reminder'
p4665
I594
sS'confidential'
p4666
I412
sS'events'
p4667
I78
sS'week'
p4668
I1094
sS'downloads'
p4669
I15
sS'refusal'
p4670
I87
sS'barges'
p4671
I10
sS'director'
p4672
I235
sS'modella'
p4673
I32
sS'rupee'
p4674
I9
sS'ranch'
p4675
I494
sS'without'
p4676
I3
sS'relief'
p4677
I18
sS'termination'
p4678
I90
sS'model'
p4679
I2566
sS'tip'
p4680
I35
sS'comstock'
p4681
I29
sS'actions'
p4682
I113
sS'baldwin'
p4683
I8
sS'announcement'
p4684
I1086
sS'tim'
p4685
I52
sS'ercot'
p4686
I131
sS'rose'
p4687
I112
sS'westinghouse'
p4688
I142
sS'interested'
p4689
I30
sS'ross'
p4690
I40
sS'scheduled'
p4691
I259
sS'inflation'
p4692
I128
sS'nepco'
p4693
I9
sS'schedules'
p4694
I32
sS'riskcenter'
p4695
I80
sS'8740'
p4696
I100
sS'furniture'
p4697
I5
sS'clays'
p4698
I66
sS'recalls'
p4699
I11
sS'tower'
p4700
I15
sS'reduced'
p4701
I25
sS'nikkei'
p4702
I10
sS'competition'
p4703
I174
sS'thuraisingham'
p4704
I7
sS'developmental'
p4705
I44
sS'swaps'
p4706
I337
sS'legal'
p4707
I182
sS'sherriff'
p4708
I54
sS'rooming'
p4709
I27
sS'provider'
p4710
I35
sS'0986563'
p4711
I105
sS'2601'
p4712
I25
sS'norberto'
p4713
I53
sS'_'
I581
sS'on'
p4714
I8615
sS'ok'
p4715
I104
sS'of'
p4716
I9922
sS'discussed'
p4717
I15
sS'mutually'
p4718
I39
sS'stand'
p4719
I19
sS'gregory'
p4720
I24
sS'or'
p4721
I588
sS'op'
p4722
I8
sS'guiseppe'
p4723
I32
sS'mcmullen'
p4724
I98
sS'nymex'
p4725
I157
sS'mihura'
p4726
I27
sS'communication'
p4727
I222
sS'charts'
p4728
I61
sS'rising'
p4729
I41
sS'gary'
p4730
I169
sS'garp'
p4731
I860
sS'strictly'
p4732
I10
sS'there'
p4733
I58
sS'valley'
p4734
I65
sS'750'
p4735
I200
sS'fundamentals'
p4736
I84
sS'jun'
p4737
I28
sS'cabinet'
p4738
I73
sS'bollerslev'
p4739
I10
sS'applying'
p4740
I72
sS'wholesale'
p4741
I258
sS'taylor'
p4742
I30
sS'cbs'
p4743
I15
sS'intro'
p4744
I42
sS'intra'
p4745
I49
sS'heather'
p4746
I7
sS'narrowing'
p4747
I1
sS'5'
I2429
sS'announcements'
p4748
I19
sS'trash'
p4749
I84
sS'requested'
p4750
I140
sS'championship'
p4751
I101
sS'collaborative'
p4752
I25
sS'cove'
p4753
I82
sS'carnegie'
p4754
I269
sS'mmbtu'
p4755
I10
sS'byles'
p4756
I7
sS'included'
p4757
I48
sS'grupo'
p4758
I9
sS'booked'
p4759
I22
sS'belden'
p4760
I43
sS'jermakyan'
p4761
I7
sS'calls'
p4762
I126
sS'odds'
p4763
I107
sS'curve'
p4764
I321
sS'directors'
p4765
I85
sS'directory'
p4766
I5
sS'hdaf'
p4767
I68
sS'ngpa'
p4768
I5
sS'all'
p4769
I387
sS'gupta'
p4770
I4
sS'southland'
p4771
I31
sS'ngpl'
p4772
I18
sS'executing'
p4773
I24
sS'follow'
p4774
I625
sS'settlement'
p4775
I52
sS'decisions'
p4776
I75
sS'alp'
p4777
I759
sS'apartment'
p4778
I19
sS'wassup'
p4779
I33
sS'opportunities'
p4780
I498
sS'removal'
p4781
I270
sS'program'
p4782
I1724
sS'lawmakers'
p4783
I14
sS'presentation'
p4784
I2774
sS'activities'
p4785
I195
sS'fax'
p4786
I389
sS'far'
p4787
I61
sS'alternatives'
p4788
I14
sS'fap'
p4789
I11
sS'fat'
p4790
I14
sS'icap'
p4791
I3
sS'print'
p4792
I155
sS'fan'
p4793
I127
sS'fac'
p4794
I79
sS'ticket'
p4795
I140
sS'stimulus'
p4796
I57
sS'list'
p4797
I2841
sS'397957'
p4798
I39
sS'lisa'
p4799
I49
sS'escalation'
p4800
I16
sS'tea'
p4801
I80
sS'tec'
p4802
I15
sS'ted'
p4803
I11
sS'schoppe'
p4804
I26
sS'tex'
p4805
I88
sS'rate'
p4806
I566
sS'design'
p4807
I136
sS'nbc'
p4808
I5
sS'what'
p4809
I596
sS'sud'
p4810
I69
sS'sub'
p4811
I118
sS'sun'
p4812
I72
sS'canales'
p4813
I29
sS'anniversary'
p4814
I158
sS'version'
p4815
I542
sS'christian'
p4816
I52
sS'supposedly'
p4817
I6
sS'tage'
p4818
I58
sS'shouldn'
p4819
I12
sS'tagg'
p4820
I5
sS'berkeley'
p4821
I621
sS'directions'
p4822
I14
sS'solarc'
p4823
I9
sS'essentials'
p4824
I60
sS'vavrik'
p4825
I15
sS'options'
p4826
I1850
sS'agustin'
p4827
I4
sS'members'
p4828
I104
sS'binders'
p4829
I13
sS'screens'
p4830
I47
sS'pdfs'
p4831
I41
sS'herring'
p4832
I3
sS'proceed'
p4833
I1
sS'dhabol'
p4834
I254
sS'beenladen'
p4835
I2
sS'markets'
p4836
I494
sS'minor'
p4837
I34
sS'flat'
p4838
I89
sS'mellon'
p4839
I217
sS'problem'
p4840
I44
sS'flag'
p4841
I33
sS'20000'
p4842
I1
sS'known'
p4843
I71
sS'edem'
p4844
I5
sS'v'
I352
sS'vatrfacs'
p4845
I29
sS'spearman'
p4846
I68
sS'computers'
p4847
I10
sS'6892'
p4848
I74
sS'court'
p4849
I16
sS'possibly'
p4850
I41
sS'sabine'
p4851
I55
sS'okay'
p4852
I39
sS'prepayment'
p4853
I12
sS'lighting'
p4854
I58
sS'short'
p4855
I94
sS'susan'
p4856
I86
sS'departure'
p4857
I133
sS'marlow'
p4858
I13
sS'9121'
p4859
I26
sS'september'
p4860
I442
sS'developed'
p4861
I29
sS'mission'
p4862
I275
sS'reconnect'
p4863
I18
sS'39189'
p4864
I32
sS'developer'
p4865
I8
sS'resort'
p4866
I14
sS'stephen'
p4867
I222
sS'argentina'
p4868
I122
sS'might'
p4869
I21
sS'return'
p4870
I12
sS'incumbent'
p4871
I69
sS'yvan'
p4872
I11
sS'hunter'
p4873
I13
sS'inch'
p4874
I13
sS'samuels'
p4875
I15
sS'cunningham'
p4876
I12
sS'bigger'
p4877
I5
sS'0439'
p4878
I204
sS'marcus'
p4879
I19
sS'congentrix'
p4880
I46
sS'0432'
p4881
I8
sS'0435'
p4882
I90
sS'generation'
p4883
I303
sS'tamarchenko'
p4884
I8
sS'clmp'
p4885
I26
sS'expect'
p4886
I1
sS'faqs'
p4887
I12
sS'hill'
p4888
I57
sS'shipment'
p4889
I110
sS'etal'
p4890
I18
sS'5961'
p4891
I7
sS'wisconsin'
p4892
I8
sS'friday'
p4893
I971
sS'125822'
p4894
I5
sS'energydesk'
p4895
I4
sS'throws'
p4896
I20
sS'takriti'
p4897
I52
sS'fees'
p4898
I25
sS'story'
p4899
I12
sS'interviews'
p4900
I426
sS'gpg'
p4901
I111
sS'brisker'
p4902
I4
sS'esai'
p4903
I28
sS'storm'
p4904
I23
sS'recovered'
p4905
I3
sS'pipelines'
p4906
I17
sS'option'
p4907
I888
sS'hotel'
p4908
I38
sS'treasurer'
p4909
I11
sS'optical'
p4910
I191
sS'king'
p4911
I116
sS'double'
p4912
I46
sS'colin'
p4913
I36
sS'risks'
p4914
I27
sS'scanners'
p4915
I24
sS'silence'
p4916
I61
sS'uniforms'
p4917
I8
sS'outstanding'
p4918
I66
sS'suspicious'
p4919
I19
sS'70422'
p4920
I2
sS'enrondirect'
p4921
I94
sS'fiona'
p4922
I21
sS'securitization'
p4923
I39
sS'chairman'
p4924
I133
sS'efa'
p4925
I47
sS'eff'
p4926
I173
sS'777'
p4927
I55
sS'added'
p4928
I17
sS'electric'
p4929
I594
sS'exec'
p4930
I162
sS'goldman'
p4931
I7
sS'hoff'
p4932
I34
sS'reach'
p4933
I6
sS'399791'
p4934
I90
sS'75'
p4935
I136
sS'74'
p4936
I33
sS'73'
p4937
I6
sS'70'
p4938
I112
sS'mineral'
p4939
I2
sS'windows'
p4940
I21
sS'rakish'
p4941
I7
sS'rto'
p4942
I342
sS'memorandum'
p4943
I11
sS'cdp'
p4944
I34
sS'rtp'
p4945
I213
sS'cds'
p4946
I23
sS'believe'
p4947
I3
sS'ygcy'
p4948
I29
sS'his'
p4949
I28
sS'hit'
p4950
I112
sS'hib'
p4951
I122
sS'reprint'
p4952
I37
sS'consensual'
p4953
I16
sS'investigate'
p4954
I21
sS'activity'
p4955
I577
sS'vincent'
p4956
I75
sS'tourney'
p4957
I35
sS'art'
p4958
I16
sS'intelligence'
p4959
I118
sS'esmeralda'
p4960
I13
sS'are'
p4961
I772
sS'gepl'
p4962
I20
sS'user'
p4963
I222
sS'bibi'
p4964
I2
sS'latin'
p4965
I4
sS'attention'
p4966
I24
sS'981511'
p4967
I12
sS'conrol'
p4968
I34
sS'c'
I997
sS'986887'
p4969
I6
sS'license'
p4970
I730
sS'986884'
p4971
I75
sS'mikkelson'
p4972
I54
sS'finds'
p4973
I133
sS'tgp'
p4974
I42
sS'ravi'
p4975
I7
sS'pr'
p4976
I57
sS'ps'
p4977
I3
sS'java'
p4978
I223
sS'enhancements'
p4979
I32
sS'pt'
p4980
I79
sS'political'
p4981
I37
sS'due'
p4982
I538
sS'strategy'
p4983
I180
sS'pc'
p4984
I301
sS'reduction'
p4985
I76
sS'pa'
p4986
I100
sS'pg'
p4987
I340
sS'pd'
p4988
I26
sS'ph'
p4989
I66
sS'pm'
p4990
I322
sS'flight'
p4991
I85
sS'transferring'
p4992
I16
sS'precision'
p4993
I38
sS'brokers'
p4994
I8
sS'demand'
p4995
I136
sS'instructor'
p4996
I28
sS'plants'
p4997
I79
sS'georgia'
p4998
I4
sS'indefinitely'
p4999
I4
sS'batch'
p5000
I72
sS'engineers'
p5001
I121
sS'jackups'
p5002
I16
sS'rig'
p5003
I5
sS'aga'
p5004
I23
sS'deletion'
p5005
I24
sS'peoples'
p5006
I90
sS'9'
I1630
sS'liquide'
p5007
I9
sS'mountain'
p5008
I58
sS'negotiate'
p5009
I3
sS'moving'
p5010
I87
sS'mips'
p5011
I40
sS'youyi'
p5012
I38
sS'buybacks'
p5013
I73
sS'lower'
p5014
I42
sS'kerrville'
p5015
I7
sS'anybody'
p5016
I1
sS'analysis'
p5017
I1101
sS'edge'
p5018
I17
sS'ledis'
p5019
I5
sS'reliant'
p5020
I61
sS'paleologo'
p5021
I114
sS'avistar'
p5022
I98
sS'competitive'
p5023
I488
sS'inactive'
p5024
I6
sS'6879'
p5025
I6
sS'continent'
p5026
I15
sS'saunders'
p5027
I13
sS'profitable'
p5028
I34
sS'tables'
p5029
I27
sS'loading'
p5030
I101
sS'contractor'
p5031
I2
sS'gemc'
p5032
I35
sS'henwood'
p5033
I653
sS'finder'
p5034
I2
sS'complaint'
p5035
I38
sS'vendor'
p5036
I51
sS'amended'
p5037
I4
sS'aggregation'
p5038
I37
sS'moody'
p5039
I61
sS'ljm'
p5040
I8
sS'riskcalc'
p5041
I41
sS'marlin'
p5042
I80
sS'ignore'
p5043
I182
sS'arthur'
p5044
I189
sS'bodnar'
p5045
I5
sS'empl'
p5046
I6
sS'9858'
p5047
I12
sS'9859'
p5048
I6
sS'newsletter'
p5049
I1124
sS'debrief'
p5050
I28
sS'pros'
p5051
I21
sS'1256'
p5052
I58
sS'prom'
p5053
I35
sS'1520'
p5054
I39
sS'market'
p5055
I1937
sS'koepke'
p5056
I118
sS'prof'
p5057
I22
sS'prod'
p5058
I281
sS'1528'
p5059
I13
sS'prob'
p5060
I14
sS'anna'
p5061
I15
sS'jumps'
p5062
I11
sS'palmer'
p5063
I5
sS'withdrawals'
p5064
I5
sS'pipeline'
p5065
I486
sS'cautious'
p5066
I27
sS'agrmts'
p5067
I3
sS'range'
p5068
I82
sS'availabilty'
p5069
I15
sS'kimich'
p5070
I15
sS'intraday'
p5071
I215
sS'lone'
p5072
I132
sS'long'
p5073
I98
sS'vendors'
p5074
I47
sS'files'
p5075
I262
sS'wnt'
p5076
I41
sS'filed'
p5077
I16
sS'junior'
p5078
I6
sS'raising'
p5079
I39
sS'durasoft'
p5080
I76
sS'pres'
p5081
I35
sS'z'
I15
sS'gaskill'
p5082
I7
sS'called'
p5083
I1
sS'oladeji'
p5084
I8
sS'iferc'
p5085
I25
sS'warning'
p5086
I34
sS'rally'
p5087
I9
sS'tentative'
p5088
I73
sS'lyondell'
p5089
I134
sS'nick'
p5090
I23
sS'napoleonville'
p5091
I42
sS'mock'
p5092
I3
sS'nice'
p5093
I57
sS'dale'
p5094
I129
sS'users'
p5095
I77
sS'problems'
p5096
I92
sS'allowing'
p5097
I18
sS'broomfield'
p5098
I45
sS'skydive'
p5099
I28
sS'wendi'
p5100
I21
sS'vice'
p5101
I204
sS'edf'
p5102
I25
sS'issued'
p5103
I49
sS'edi'
p5104
I12
sS'alien'
p5105
I11
sS'edt'
p5106
I29
sS'edu'
p5107
I220
sS'winds'
p5108
I68
sS'019'
p5109
I7
sS'adjustment'
p5110
I6
sS'issues'
p5111
I1239
sS'akamai'
p5112
I10
sS'confirmation'
p5113
I1688
sS'agua'
p5114
I51
sS'986679'
p5115
I16
sS'wishes'
p5116
I65
sS'synfuel'
p5117
I54
sS'notes'
p5118
I468
sS'deals'
p5119
I1552
sS'netco'
p5120
I1228
sS'leavers'
p5121
I7
sS'congrats'
p5122
I63
sS'noted'
p5123
I13
sS'disclaimer'
p5124
I8
sS'cfo'
p5125
I16
sS'reclassification'
p5126
I4
sS'universities'
p5127
I54
sS'hourly'
p5128
I30
sS'compaq'
p5129
I24
sS'carthage'
p5130
I111
sS'find'
p5131
I158
sS'waiting'
p5132
I22
sS'capital'
p5133
I292
sS'kulatilaka'
p5134
I310
sS'chokshi'
p5135
I54
sS'applicatiions'
p5136
I43
sS'survivor'
p5137
I35
sS'gorny'
p5138
I42
sS'156071'
p5139
I68
sS'sheila'
p5140
I4
sS'vlady'
p5141
I42
sS'apr'
p5142
I221
sS'subsidary'
p5143
I190
sS'vols'
p5144
I264
sS'apa'
p5145
I8
sS'fed'
p5146
I96
sS'fee'
p5147
I31
sS'feb'
p5148
I1013
sS'consumption'
p5149
I8
sS'fea'
p5150
I679
sS'few'
p5151
I57
sS'energycast'
p5152
I41
sS'biliana'
p5153
I143
sS'journalists'
p5154
I64
sS'factor'
p5155
I186
sS'seabreeze'
p5156
I5
sS'confe'
p5157
I101
sS'6614'
p5158
I14
sS'women'
p5159
I104
sS'lebrocq'
p5160
I3
sS'accrued'
p5161
I6
sS'iconference'
p5162
I106
sS'tap'
p5163
I16
sS'teambuilding'
p5164
I7
sS'calculation'
p5165
I25
sS'sokolov'
p5166
I27
sS'hilton'
p5167
I11
sS'something'
p5168
I31
sS'publishable'
p5169
I69
sS'enrique'
p5170
I4
sS'dwr'
p5171
I137
sS'sir'
p5172
I22
sS'united'
p5173
I435
sS'adjourns'
p5174
I48
sS'sit'
p5175
I206
sS'six'
p5176
I22
sS'sic'
p5177
I102
sS'brian'
p5178
I205
sS'sie'
p5179
I7
sS'instead'
p5180
I17
sS'mccoy'
p5181
I40
sS'panic'
p5182
I3
sS'0717'
p5183
I22
sS'administrator'
p5184
I76
sS'attend'
p5185
I12
sS'135714'
p5186
I30
sS'985369'
p5187
I9
sS'light'
p5188
I165
sS'chapman'
p5189
I49
sS'133'
p5190
I174
sS'looks'
p5191
I2
sS'jimenez'
p5192
I34
sS'ganjoo'
p5193
I28
sS'superior'
p5194
I43
sS'tyler'
p5195
I16
sS'choose'
p5196
I82
sS'orange'
p5197
I1
sS'9682'
p5198
I11
sS'pending'
p5199
I214
sS'rsvp'
p5200
I328
sS'huff'
p5201
I8
sS'gunther'
p5202
I44
sS'material'
p5203
I210
sS'invitations'
p5204
I17
sS'resolve'
p5205
I1
sS'investor'
p5206
I89
sS'articles'
p5207
I122
sS'clippings'
p5208
I5
sS'tram'
p5209
I11
sS'billy'
p5210
I7
sS'rockets'
p5211
I4
sS'Subject'
p5212
I256406
sS'related'
p5213
I510
sS'our'
p5214
I656
sS'80'
p5215
I1
sS'87'
p5216
I1
sS'out'
p5217
I709
sS'huberator'
p5218
I5
sS'stentofon'
p5219
I7
sS'deloitte'
p5220
I44
sS'aol'
p5221
I82
sS'krishnarao'
p5222
I46
sS'molly'
p5223
I58
sS'34342'
p5224
I193
sS'york'
p5225
I179
sS'philip'
p5226
I61
sS'additional'
p5227
I230
sS'organic'
p5228
I5
sS'g'
I416
sS'fitzpatrick'
p5229
I1
sS'conversation'
p5230
I217
sS'ltd'
p5231
I221
sS'mccampbell'
p5232
I11
sS'redelivery'
p5233
I5
sS'probation'
p5234
I42
sS'502952'
p5235
I8
sS'publication'
p5236
I92
sS'overtime'
p5237
I30
sS'risktrac'
p5238
I191
sS'656'
p5239
I173
sS'their'
p5240
I67
sS'siam'
p5241
I271
sS'boil'
p5242
I51
sS'shell'
p5243
I193
sS'slides'
p5244
I53
sS'july'
p5245
I1719
sS'costantino'
p5246
I32
sS'6709'
p5247
I11
sS'tommy'
p5248
I8
sS'trefz'
p5249
I5
sS'clip'
p5250
I17
sS'980074'
p5251
I119
sS'980070'
p5252
I95
sS'980072'
p5253
I8
sS'metter'
p5254
I5
sS'agency'
p5255
I16
sS'which'
p5256
I59
sS'proformas'
p5257
I67
sS'who'
p5258
I150
sS'whs'
p5259
I54
sS'why'
p5260
I45
sS'pipe'
p5261
I100
sS'ho'
p5262
I15
sS'501869'
p5263
I79
sS'agreed'
p5264
I39
sS'chapters'
p5265
I111
sS'sandridge'
p5266
I5
sS'planning'
p5267
I521
sS'litigation'
p5268
I127
sS'mugs'
p5269
I8
sS'6000'
p5270
I9
sS'operational'
p5271
I161
sS'candidates'
p5272
I64
sS'thousands'
p5273
I126
sS'insead'
p5274
I208
sS'invitacion'
p5275
I16
sS'chips'
p5276
I13
sS'jaime'
p5277
I102
sS'darden'
p5278
I43
sS'avoidable'
p5279
I10
sS'qf'
p5280
I66
sS'ql'
p5281
I86
sS'available'
p5282
I241
sS'ebl'
p5283
I30
sS'module'
p5284
I82
sS'ebs'
p5285
I543
sS'037'
p5286
I22
sS'acquires'
p5287
I5
sS'ruewan'
p5288
I62
sS'brandfass'
p5289
I22
sS'5095'
p5290
I22
sS'5097'
p5291
I7
sS'favor'
p5292
I137
sS'identification'
p5293
I6
sS'closed'
p5294
I10
sS'crude'
p5295
I258
sS'publishers'
p5296
I44
sS'yaman'
p5297
I204
sS'exam'
p5298
I26
sS'amex'
p5299
I60
sS'job'
p5300
I292
sS'joe'
p5301
I54
sS'swift'
p5302
I60
sS'637225'
p5303
I12
sS'budgeting'
p5304
I23
sS'gpcm'
p5305
I91
sS'april'
p5306
I1783
sS'grain'
p5307
I10
sS'auctions'
p5308
I178
sS'rodney'
p5309
I97
sS'985097'
p5310
I8
sS'wall'
p5311
I38
sS'walk'
p5312
I3
sS'rpi'
p5313
I52
sS'table'
p5314
I52
sS'bbl'
p5315
I7
sS'wallumrod'
p5316
I9
sS'decent'
p5317
I1
sS'bbb'
p5318
I6
sS'agreements'
p5319
I377
sS'olson'
p5320
I6
sS'revison'
p5321
I28
sS'mike'
p5322
I243
sS'inbound'
p5323
I12
sS'astros'
p5324
I137
sS'dailyupdate'
p5325
I8
sS'scrutiny'
p5326
I2
sS'pbas'
p5327
I2
sS'naphtha'
p5328
I38
sS'reeves'
p5329
I11
sS'assimiliation'
p5330
I5
sS'choices'
p5331
I7
sS'will'
p5332
I443
sS'vicky'
p5333
I103
sS'supply'
p5334
I399
sS'ringing'
p5335
I1
sS'thur'
p5336
I41
sS'encouragement'
p5337
I40
sS'dual'
p5338
I10
sS'requisitions'
p5339
I13
sS'avg'
p5340
I18
sS'mauldin'
p5341
I14
sS'passowrd'
p5342
I12
sS'cross'
p5343
I108
sS'member'
p5344
I90
sS'988078'
p5345
I6
sS'units'
p5346
I43
sS'samson'
p5347
I15
sS'gets'
p5348
I6
sS'incl'
p5349
I3
sS'privileged'
p5350
I27
sS'difficult'
p5351
I8
sS'promo'
p5352
I2
sS'argueta'
p5353
I5
sS'issuance'
p5354
I8
sS'student'
p5355
I352
sS'collar'
p5356
I119
sS'approve'
p5357
I22
sS'anshuman'
p5358
I579
sS'sevile'
p5359
I7
sS'marshweb'
p5360
I15
sS'recap'
p5361
I171
sS'panther'
p5362
I6
sS'point'
p5363
I418
sS'smith'
p5364
I121
sS'discuss'
p5365
I78
sS'nicki'
p5366
I29
sS'usage'
p5367
I165
sS'ski'
p5368
I18
sS'provisions'
p5369
I10
sS'know'
p5370
I146
sS'press'
p5371
I349
sS'globals'
p5372
I41
sS'sabrae'
p5373
I8
sS'lufkin'
p5374
I4
sS'kdl'
p5375
I29
sS'platforms'
p5376
I5
sS'growth'
p5377
I156
sS'60747'
p5378
I42
sS'employment'
p5379
I235
sS'buildout'
p5380
I8
sS'lead'
p5381
I11
sS'severance'
p5382
I33
sS'bosses'
p5383
I3
sS'leader'
p5384
I118
sS'iijournals'
p5385
I48
sS'slug'
p5386
I4
sS'extension'
p5387
I157
sS'getting'
p5388
I89
sS'6831'
p5389
I33
sS'warrants'
p5390
I44
sS'owa'
p5391
I88
sS'juneol'
p5392
I8
sS'weather'
p5393
I1517
sS'weathet'
p5394
I32
sS'registration'
p5395
I165
sS'riskwaters'
p5396
I7
sS'yankee'
p5397
I17
sS'sabra'
p5398
I23
sS'texaco'
p5399
I159
sS'transfer'
p5400
I17
sS'apps'
p5401
I11
sS'smoothing'
p5402
I28
sS'continental'
p5403
I53
sS'cairn'
p5404
I281
sS'kang'
p5405
I14
sS'var'
p5406
I1431
sS'formation'
p5407
I84
sS'issuealert'
p5408
I18
sS'fundy'
p5409
I21
sS'redmond'
p5410
I131
sS'funds'
p5411
I43
sS'volume'
p5412
I333
sS'made'
p5413
I39
sS'temp'
p5414
I2
sS'whether'
p5415
I2
sS'below'
p5416
I44
sS'ruling'
p5417
I13
sS'isda'
p5418
I10
sS'212225'
p5419
I108
sS'calibration'
p5420
I56
sS'book'
p5421
I1789
sS'boom'
p5422
I9
sS'contacting'
p5423
I216
sS'lance'
p5424
I15
sS'juno'
p5425
I46
sS'june'
p5426
I1136
sS'cliff'
p5427
I6
sS'ranks'
p5428
I15
sS'newsclips'
p5429
I1351
sS'volumes'
p5430
I556
sS'understand'
p5431
I12
s.