(dp1
S'limited'
p2
I64
sS'680739'
p3
I12
sS'sunbonnet'
p4
I10
sS'copy'
p5
I81
sS'cial'
p6
I36
sS'llemd'
p7
I9
sS'klno'
p8
I10
sS'rapid'
p9
I7
sS'derm'
p10
I28
sS'sleep'
p11
I71
sS'resisted'
p12
I8
sS'drucker'
p13
I7
sS'appetite'
p14
I21
sS'bank'
p15
I249
sS'localized'
p16
I286
sS'ddeals'
p17
I20
sS'increase'
p18
I312
sS'presenta'
p19
I7
sS'patches'
p20
I19
sS'aug'
p21
I103
sS'paris'
p22
I11
sS'10891'
p23
I39
sS'plutarch'
p24
I11
sS'codelne'
p25
I12
sS'regalis'
p26
I84
sS'presents'
p27
I14
sS'halogen'
p28
I16
sS'under'
p29
I21
sS'aux'
p30
I179
sS'dapple'
p31
I8
sS'verdant'
p32
I21
sS'worth'
p33
I7
sS'overpaying'
p34
I10
sS'merchant'
p35
I16
sS'avril'
p36
I7
sS'risk'
p37
I19
sS'ashy'
p38
I15
sS'newsletters'
p39
I1
sS'dollar'
p40
I6
sS'activation'
p41
I18
sS'hilarious'
p42
I2
sS'dell'
p43
I4
sS'ble'
p44
I20
sS'advisors'
p45
I37
sS'every'
p46
I71
sS'imts'
p47
I49
sS'affect'
p48
I8
sS'amt'
p49
I6
sS'married'
p50
I12
sS'tickets'
p51
I4
sS'jetset'
p52
I14
sS'school'
p53
I18
sS'universe'
p54
I48
sS'prize'
p55
I137
sS'mmomy'
p56
I3
sS'investigator'
p57
I54
sS'skills'
p58
I2
sS'folders'
p59
I1
sS'upe'
p60
I6
sS'2312'
p61
I2
sS'solution'
p62
I63
sS'apartamentos'
p63
I14
sS'solid'
p64
I32
sS'cocksuckers'
p65
I4
sS'medicattions'
p66
I15
sS'cholesterol'
p67
I35
sS'296'
p68
I3
sS'enhance'
p69
I42
sS'artist'
p70
I48
sS'triumph'
p71
I16
sS'enjoy'
p72
I92
sS'achievements'
p73
I23
sS'foulston'
p74
I10
sS'tired'
p75
I39
sS'cabling'
p76
I7
sS'codin'
p77
I44
sS'guidelines'
p78
I21
sS'esoy'
p79
I32
sS'direct'
p80
I93
sS'dobmeos'
p81
I31
sS'second'
p82
I105
sS'street'
p83
I681
sS'275'
p84
I41
sS'chea'
p85
I8
sS'278'
p86
I8
sS'279'
p87
I1
sS'shining'
p88
I6
sS'even'
p89
I96
sS'excelllent'
p90
I17
sS'conduce'
p91
I26
sS'pace'
p92
I171
sS'657549'
p93
I6
sS'hate'
p94
I23
sS'rockies'
p95
I14
sS'158545'
p96
I23
sS'submision'
p97
I12
sS'bonuses'
p98
I46
sS'daiiy'
p99
I91
sS'ney'
p100
I10
sS'supplier'
p101
I61
sS'new'
p102
I1831
sS'net'
p103
I332
sS'upward'
p104
I57
sS'ever'
p105
I113
sS'gteting'
p106
I3
sS'uiccib'
p107
I8
sS'injections'
p108
I2
sS'med'
p109
I49
sS'barometer'
p110
I214
sS'armacy'
p111
I14
sS'men'
p112
I99
sS'medicaments'
p113
I61
sS'here'
p114
I1022
sS'hundreds'
p115
I17
sS'bangkok'
p116
I14
sS'fun'
p117
I54
sS'108'
p118
I79
sS'109'
p119
I13
sS'studio'
p120
I35
sS'versionsfeatures'
p121
I3
sS'fuck'
p122
I18
sS'100'
p123
I265
sS'principle'
p124
I6
sS'substantial'
p125
I161
sS'buddy'
p126
I62
sS'studs'
p127
I9
sS'property'
p128
I80
sS'daughter'
p129
I42
sS'forum'
p130
I50
sS'auction'
p131
I1
sS'items'
p132
I26
sS'k'
I185
sS'changed'
p133
I18
sS'dru'
p134
I19
sS'reports'
p135
I1
sS'necromancers'
p136
I10
sS'quiicker'
p137
I17
sS'credit'
p138
I132
sS'saint'
p139
I7
sS'mentor'
p140
I124
sS'cindy'
p141
I19
sS'permit'
p142
I9
sS'military'
p143
I10
sS'vvould'
p144
I26
sS'changes'
p145
I22
sS'merldlla'
p146
I36
sS'physiciansguid'
p147
I55
sS'york'
p148
I22
sS'fantastic'
p149
I58
sS'offr'
p150
I87
sS'projection'
p151
I17
sS'figure'
p152
I34
sS'smoke'
p153
I14
sS'hiya'
p154
I5
sS'treatment'
p155
I18
sS'madge'
p156
I3
sS'bro'
p157
I22
sS'medlcat'
p158
I46
sS'moral'
p159
I16
sS'thursday'
p160
I21
sS'diabetes'
p161
I39
sS'counts'
p162
I19
sS'removal'
p163
I10
sS'bra'
p164
I16
sS'meaty'
p165
I10
sS'sarah'
p166
I11
sS'rediscovered'
p167
I17
sS'cheating'
p168
I111
sS'spoke'
p169
I32
sS'would'
p170
I136
sS'browse'
p171
I15
sS'hospital'
p172
I57
sS'prescript'
p173
I1
sS'bundles'
p174
I4
sS'diiploma'
p175
I6
sS'asses'
p176
I3
sS'collene'
p177
I50
sS'music'
p178
I286
sS'mitrosoft'
p179
I9
sS'lwl'
p180
I32
sS'shiipping'
p181
I2
sS'stockplay'
p182
I50
sS'preview'
p183
I19
sS'until'
p184
I87
sS'1000'
p185
I40
sS'autoroute'
p186
I6
sS'aluko'
p187
I66
sS'pharmaaccy'
p188
I22
sS'relax'
p189
I11
sS'successful'
p190
I16
sS'correlate'
p191
I56
sS'expose'
p192
I8
sS'jordyn'
p193
I3
sS'award'
p194
I395
sS'accessories'
p195
I184
sS'99'
p196
I314
sS'phone'
p197
I222
sS'accedez'
p198
I179
sS'adult'
p199
I190
sS'tying'
p200
I6
sS'thinkpad'
p201
I1
sS'90'
p202
I161
sS'93'
p203
I30
sS'ware'
p204
I52
sS'95'
p205
I271
sS'sorry'
p206
I18
sS'97'
p207
I39
sS'96'
p208
I12
sS'me'
p209
I728
sS'mg'
p210
I18
sS'zkcc'
p211
I8
sS'ma'
p212
I47
sS'carnival'
p213
I3
sS'mc'
p214
I32
sS'cheapest'
p215
I147
sS'ml'
p216
I5
sS'mo'
p217
I58
sS'work'
p218
I180
sS'04005'
p219
I1
sS'ortemeca'
p220
I49
sS'roof'
p221
I42
sS'expenditures'
p222
I33
sS'movies'
p223
I285
sS'buckhorn'
p224
I42
sS'eighteen'
p225
I9
sS'era'
p226
I27
sS'ms'
p227
I51
sS'mr'
p228
I125
sS'erm'
p229
I12
sS'orgy'
p230
I19
sS'kilims'
p231
I13
sS'my'
p232
I514
sS'mx'
p233
I17
sS'cwfqt'
p234
I17
sS'crosshatch'
p235
I21
sS'pdi'
p236
I6
sS'viagr'
p237
I13
sS'ciall'
p238
I36
sS'goood'
p239
I17
sS'estate'
p240
I221
sS'give'
p241
I89
sS'pie'
p242
I12
sS'anise'
p243
I21
sS'fluorite'
p244
I8
sS'uptick'
p245
I124
sS'embarressing'
p246
I6
sS'currency'
p247
I3
sS'minder'
p248
I70
sS'bestse'
p249
I23
sS'ygr'
p250
I2
sS'want'
p251
I592
sS'wanu'
p252
I2
sS'piaget'
p253
I27
sS'premium'
p254
I78
sS'keep'
p255
I110
sS'attract'
p256
I94
sS'5056'
p257
I20
sS'yeeeet'
p258
I12
sS'aging'
p259
I53
sS'penile'
p260
I6
sS'vanish'
p261
I5
sS'end'
p262
I219
sS'recovery'
p263
I9
sS'thing'
p264
I231
sS'provide'
p265
I19
sS'verify'
p266
I105
sS'travel'
p267
I76
sS'chameleon'
p268
I11
sS'zzzz'
p269
I36
sS'feature'
p270
I158
sS'winkelpersoneel'
p271
I36
sS'id'
p272
I110
sS'machine'
p273
I22
sS'how'
p274
I492
sS'hot'
p275
I1069
sS'cures'
p276
I40
sS'progs'
p277
I125
sS'trusted'
p278
I11
sS'hop'
p279
I8
sS'answer'
p280
I65
sS'place'
p281
I9
sS'bianca'
p282
I7
sS'chase'
p283
I9
sS'beach'
p284
I10
sS'offshore'
p285
I10
sS'hoy'
p286
I14
sS'adip'
p287
I19
sS'cyberspace'
p288
I17
sS'lan'
p289
I96
sS'rise'
p290
I12
sS'befog'
p291
I26
sS'elizabeth'
p292
I11
sS'beauty'
p293
I9
sS'famish'
p294
I3
sS'after'
p295
I70
sS'igor'
p296
I13
sS'connects'
p297
I24
sS'lot'
p298
I9
sS'lay'
p299
I9
sS'router'
p300
I79
sS'trader'
p301
I144
sS'law'
p302
I3
sS'irbxij'
p303
I4
sS'lesbian'
p304
I69
sS'lar'
p305
I3
sS'las'
p306
I96
sS'bucks'
p307
I71
sS'purchase'
p308
I50
sS'vance'
p309
I12
sS'retail'
p310
I22
sS'effective'
p311
I20
sS'goldeditor'
p312
I49
sS'wknd'
p313
I8
sS'think'
p314
I70
sS'lavigne'
p315
I7
sS'kiloton'
p316
I22
sS'tzvtwhqeldl'
p317
I2
sS'upside'
p318
I119
sS'ultimate'
p319
I50
sS'charlemagne'
p320
I4
sS'enter'
p321
I6
sS'aloud'
p322
I32
sS'atrocity'
p323
I26
sS'adams'
p324
I3
sS'order'
p325
I291
sS'turns'
p326
I9
sS'jack'
p327
I68
sS'feedback'
p328
I14
sS'office'
p329
I365
sS'buzzard'
p330
I12
sS'over'
p331
I315
sS'gettysburg'
p332
I3
sS'44124543'
p333
I12
sS'hidden'
p334
I198
sS'sive'
p335
I15
sS'innovative'
p336
I3
sS'crimping'
p337
I79
sS'218'
p338
I14
sS'jessamy'
p339
I15
sS'enfants'
p340
I37
sS'before'
p341
I180
sS'highprices'
p342
I41
sS'tuesdae'
p343
I3
sS'pharma'
p344
I16
sS'fit'
p345
I6
sS'personal'
p346
I135
sS'cle'
p347
I23
sS'trying'
p348
I12
sS'oney'
p349
I18
sS'writing'
p350
I19
sS'better'
p351
I741
sS'prce'
p352
I61
sS'production'
p353
I123
sS'symanteec'
p354
I6
sS'tagging'
p355
I6
sS'400'
p356
I192
sS'weeks'
p357
I156
sS'carton'
p358
I12
sS'kirkbridebuildings'
p359
I10
sS'versus'
p360
I17
sS'then'
p361
I156
sS'coffee'
p362
I11
sS'thel'
p363
I19
sS'remedy'
p364
I29
sS'293622'
p365
I3
sS'maker'
p366
I21
sS'press'
p367
I103
sS'safe'
p368
I131
sS'break'
p369
I42
sS'dreamweaver'
p370
I14
sS'bang'
p371
I190
sS'effects'
p372
I17
sS'they'
p373
I25
sS'levltra'
p374
I4
sS'yourself'
p375
I29
sS'lifelong'
p376
I25
sS'ecallls'
p377
I23
sS'coffey'
p378
I21
sS'propecia'
p379
I19
sS'stereo'
p380
I78
sS'acme'
p381
I10
sS'capricorn'
p382
I26
sS'classified'
p383
I38
sS'sideband'
p384
I22
sS'l'
I337
sS'herald'
p385
I31
sS'acvbv'
p386
I8
sS'affiliate'
p387
I64
sS'luca'
p388
I11
sS'arrow'
p389
I7
sS'each'
p390
I90
sS'addicted'
p391
I8
sS'graand'
p392
I2
sS'feeds'
p393
I29
sS'side'
p394
I3
sS'377'
p395
I11
sS'mean'
p396
I37
sS'obum'
p397
I17
sS'fee'
p398
I3
sS'piills'
p399
I2
sS'adobe'
p400
I184
sS'suspended'
p401
I34
sS'concord'
p402
I16
sS'companies'
p403
I220
sS'satellite'
p404
I91
sS'incomplete'
p405
I53
sS'xga'
p406
I101
sS'inexpen'
p407
I15
sS'generative'
p408
I10
sS'milan'
p409
I14
sS'used'
p410
I32
sS'397'
p411
I14
sS'anax'
p412
I36
sS'fortnight'
p413
I9
sS'logo'
p414
I500
sS'xp'
p415
I585
sS'backgammon'
p416
I58
sS'goo'
p417
I120
sS'rw'
p418
I81
sS'network'
p419
I122
sS'23875'
p420
I66
sS'oprah'
p421
I9
sS'sluts'
p422
I15
sS'degreeidyllic'
p423
I9
sS'tried'
p424
I49
sS'buscando'
p425
I110
sS'diesel'
p426
I10
sS'include'
p427
I5
sS'2306'
p428
I99
sS'rd'
p429
I19
sS're'
p430
I5072
sS'laid'
p431
I47
sS'daniel'
p432
I67
sS'dsj'
p433
I30
sS'ra'
p434
I8
sS'generics'
p435
I33
sS'debit'
p436
I25
sS'medicine'
p437
I130
sS'got'
p438
I501
sS'rn'
p439
I16
sS'tjuz'
p440
I11
sS'medicina'
p441
I49
sS'ri'
p442
I21
sS'rj'
p443
I79
sS'rk'
p444
I2
sS'amblen'
p445
I13
sS'alkane'
p446
I12
sS'replicas'
p447
I12
sS'nts'
p448
I23
sS'eternal'
p449
I14
sS'strata'
p450
I9
sS'free'
p451
I1140
sS'standard'
p452
I15
sS'softs'
p453
I8
sS'oportunidad'
p454
I31
sS'struggle'
p455
I11
sS'243'
p456
I12
sS'boosting'
p457
I17
sS'32004'
p458
I47
sS'checked'
p459
I24
sS'sensors'
p460
I146
sS'wanted'
p461
I207
sS'acrobat'
p462
I21
sS'calculator'
p463
I16
sS'onseon'
p464
I9
sS'birdie'
p465
I4
sS'renaissance'
p466
I9
sS'dj'
p467
I24
sS'starts'
p468
I59
sS'inexpensive'
p469
I63
sS'days'
p470
I66
sS'weightloss'
p471
I94
sS'filter'
p472
I27
sS'presumptive'
p473
I4
sS'shipped'
p474
I41
sS'iso'
p475
I834
sS'smokers'
p476
I7
sS'unknown'
p477
I6
sS'guesswork'
p478
I149
sS'isa'
p479
I8
sS'hannibal'
p480
I2
sS'ambieen'
p481
I12
sS'ise'
p482
I3
sS'user'
p483
I147
sS'128285'
p484
I6
sS'grownups'
p485
I10
sS'trke'
p486
I5
sS'already'
p487
I20
sS'features'
p488
I31
sS'nhc'
p489
I97
sS'psychic'
p490
I69
sS'rank'
p491
I3
sS'system'
p492
I315
sS'channels'
p493
I7
sS'featured'
p494
I230
sS'tek'
p495
I14
sS'enlargmennt'
p496
I8
sS'another'
p497
I245
sS'deleeeeeted'
p498
I24
sS'force'
p499
I22
sS'thick'
p500
I2
sS'172'
p501
I50
sS'cumshot'
p502
I26
sS'agra'
p503
I68
sS'heartandsoul'
p504
I3
sS'heisser'
p505
I24
sS'rated'
p506
I37
sS'barnhart'
p507
I1
sS'service'
p508
I128
sS'tor'
p509
I13
sS'top'
p510
I344
sS'ance'
p511
I39
sS'recruiting'
p512
I15
sS'judgements'
p513
I22
sS'cash'
p514
I132
sS'needed'
p515
I211
sS'qeeb'
p516
I12
sS'ton'
p517
I50
sS'too'
p518
I163
sS'pknkn'
p519
I70
sS'flagpole'
p520
I16
sS'corpus'
p521
I4
sS'euro'
p522
I54
sS'pnlls'
p523
I3
sS'197'
p524
I23
sS'listen'
p525
I4
sS'virus'
p526
I17
sS'rewards'
p527
I144
sS'asset'
p528
I24
sS'ted'
p529
I5
sS'tool'
p530
I105
sS'meedication'
p531
I18
sS'rejected'
p532
I8
sS'bailout'
p533
I32
sS'helen'
p534
I18
sS'todday'
p535
I26
sS'llars'
p536
I9
sS'stocking'
p537
I15
sS'begins'
p538
I65
sS'270'
p539
I18
sS'ahmed'
p540
I47
sS'anxiety'
p541
I14
sS'guile'
p542
I10
sS'citibank'
p543
I64
sS'nvnm'
p544
I4
sS'rolex'
p545
I277
sS'ebay'
p546
I266
sS'seminars'
p547
I57
sS'kalmia'
p548
I26
sS'nnews'
p549
I17
sS'expo'
p550
I3
sS'williams'
p551
I32
sS'mirth'
p552
I12
sS'seminary'
p553
I167
sS'feeling'
p554
I43
sS'stacey'
p555
I17
sS'acquisition'
p556
I33
sS'lbs'
p557
I18
sS'muuch'
p558
I10
sS'sees'
p559
I9
sS'prescriptdrugs'
p560
I18
sS'ixnepeinsve'
p561
I26
sS'milakovich'
p562
I37
sS'esto'
p563
I116
sS'caleb'
p564
I12
sS'eyes'
p565
I2
sS'taint'
p566
I12
sS'return'
p567
I95
sS'guillotine'
p568
I16
sS'buttrick'
p569
I9
sS'antivirus'
p570
I1
sS'seen'
p571
I282
sS'picks'
p572
I315
sS'diabetic'
p573
I9
sS'tells'
p574
I1
sS'seminar'
p575
I27
sS'gear'
p576
I117
sS'genuine'
p577
I16
sS'sitio'
p578
I19
sS'alibi'
p579
I12
sS'cyrillic'
p580
I12
sS'convenient'
p581
I27
sS'savings'
p582
I49
sS'casual'
p583
I38
sS'recommended'
p584
I39
sS'materials'
p585
I41
sS'luxury'
p586
I10
sS'stockmogul'
p587
I115
sS'memo'
p588
I14
sS'zeehavens'
p589
I36
sS'rasheed'
p590
I27
sS'medzz'
p591
I52
sS'permian'
p592
I8
sS'though'
p593
I8
sS'boxcar'
p594
I11
sS'lbwua'
p595
I30
sS'wells'
p596
I6
sS'victoria'
p597
I16
sS'scriptt'
p598
I4
sS'swiss'
p599
I29
sS'glnbkp'
p600
I30
sS'affirmation'
p601
I10
sS'osteoporosis'
p602
I20
sS'letter'
p603
I314
sS'claims'
p604
I38
sS'chriiistiiaaaan'
p605
I10
sS'seguis'
p606
I125
sS'the'
p607
I7574
sS'bsb'
p608
I14
sS'webcam'
p609
I4
sS'peers'
p610
I32
sS'don'
p611
I626
sS'treats'
p612
I6
sS'dol'
p613
I92
sS'cops'
p614
I2
sS'emailing'
p615
I14
sS'doc'
p616
I13
sS'medical'
p617
I160
sS'm'
I385
sS'webxperts'
p618
I3
sS'sexuaal'
p619
I16
sS'deacon'
p620
I4
sS'swamp'
p621
I21
sS'points'
p622
I35
sS'tech'
p623
I27
sS'6540595'
p624
I30
sS'swamps'
p625
I4
sS'haave'
p626
I12
sS'dos'
p627
I11
sS'qoil'
p628
I248
sS'mailing'
p629
I24
sS'responded'
p630
I11
sS'valiuim'
p631
I4
sS'advisory'
p632
I171
sS'analyze'
p633
I1
sS'selected'
p634
I256
sS'bait'
p635
I387
sS'1147'
p636
I7
sS'sightseer'
p637
I17
sS'357'
p638
I12
sS'revolutionize'
p639
I156
sS'queen'
p640
I10
sS'plagues'
p641
I2
sS'fucks'
p642
I20
sS'xl'
p643
I89
sS'maverick'
p644
I72
sS'solutions'
p645
I32
sS'aeneas'
p646
I21
sS'expiosion'
p647
I95
sS'126432211'
p648
I5
sS'toshiba'
p649
I117
sS'dove'
p650
I8
sS'8477'
p651
I12
sS'charity'
p652
I123
sS'erful'
p653
I17
sS'submit'
p654
I68
sS'proccess'
p655
I9
sS'ment'
p656
I4
sS'explain'
p657
I12
sS'debts'
p658
I7
sS'endeavour'
p659
I57
sS'mens'
p660
I14
sS'eingetroffen'
p661
I13
sS'rich'
p662
I50
sS'yb'
p663
I14
sS'pnrecet'
p664
I6
sS'longhorn'
p665
I1
sS'548'
p666
I11
sS'ocu'
p667
I16
sS'laptop'
p668
I79
sS'lamelas'
p669
I14
sS'heatt'
p670
I5
sS'do'
p671
I860
sS'stox'
p672
I513
sS'imageplus'
p673
I222
sS'di'
p674
I15
sS'dd'
p675
I41
sS'de'
p676
I504
sS'watch'
p677
I685
sS'dc'
p678
I21
sS'leisure'
p679
I30
sS'fabrica'
p680
I3
sS'pocket'
p681
I81
sS'enters'
p682
I39
sS'watson'
p683
I8
sS'beagles'
p684
I18
sS'wedding'
p685
I20
sS'report'
p686
I948
sS'nasty'
p687
I3
sS'dr'
p688
I96
sS'uqfcavegwo'
p689
I17
sS'dq'
p690
I14
sS'randal'
p691
I6
sS'rebirth'
p692
I16
sS'earn'
p693
I372
sS'jaguar'
p694
I10
sS'hastes'
p695
I3
sS'viewsonic'
p696
I97
sS'officially'
p697
I25
sS'modern'
p698
I17
sS'commercialization'
p699
I38
sS'bad'
p700
I45
sS'cllllum'
p701
I6
sS'release'
p702
I103
sS'manes'
p703
I7
sS'bashaw'
p704
I9
sS'setup'
p705
I41
sS'nawty'
p706
I6
sS'respond'
p707
I124
sS'playstation'
p708
I16
sS'blew'
p709
I12
sS'leasing'
p710
I24
sS'prescr'
p711
I3
sS'observer'
p712
I9
sS'cerca'
p713
I3
sS'qccruxmven'
p714
I19
sS'chimique'
p715
I19
sS'full'
p716
I98
sS'result'
p717
I51
sS'blow'
p718
I9
sS'julies'
p719
I9
sS'outdoorsmen'
p720
I12
sS'yes'
p721
I17
sS'best'
p722
I758
sS'subject'
p723
I365
sS'02'
p724
I56
sS'03'
p725
I51
sS'cobra'
p726
I10
sS'01'
p727
I59
sS'06'
p728
I12
sS'07'
p729
I141
sS'04'
p730
I51
sS'05'
p731
I55
sS'lots'
p732
I66
sS'rkao'
p733
I8
sS'away'
p734
I236
sS'09'
p735
I80
sS'alarmas'
p736
I19
sS'future'
p737
I217
sS'irm'
p738
I1
sS'ira'
p739
I10
sS'letterheads'
p740
I12
sS'baboon'
p741
I12
sS'discovery'
p742
I25
sS'nicolas'
p743
I12
sS'oma'
p744
I5
sS'never'
p745
I34
sS'terms'
p746
I67
sS'cheaaaap'
p747
I6
sS'extend'
p748
I17
sS'addicts'
p749
I7
sS'unshackling'
p750
I7
sS'wm'
p751
I46
sS'lover'
p752
I9
sS'however'
p753
I14
sS'nsea'
p754
I8
sS'submitted'
p755
I25
sS'382'
p756
I8
sS'add'
p757
I26
sS'567842'
p758
I10
sS'wear'
p759
I9
sS'rescriptions'
p760
I4
sS'wth'
p761
I29
sS'news'
p762
I1199
sS'debt'
p763
I11
sS'improve'
p764
I104
sS'perkins'
p765
I2
sS'ciaiis'
p766
I2
sS'protect'
p767
I94
sS'genocide'
p768
I2
sS'condoms'
p769
I15
sS'conce'
p770
I9
sS'programmer'
p771
I26
sS'met'
p772
I16
sS'country'
p773
I64
sS'adapter'
p774
I96
sS'greatt'
p775
I17
sS'askew'
p776
I5
sS'ili'
p777
I4
sS'coa'
p778
I14
sS'players'
p779
I192
sS'else'
p780
I11
sS'protection'
p781
I17
sS'games'
p782
I58
sS'bodice'
p783
I4
sS'lookin'
p784
I6
sS'syn'
p785
I33
sS'china'
p786
I2
sS'sunshine'
p787
I5
sS'com'
p788
I390
sS'asked'
p789
I9
sS'con'
p790
I131
sS'pre'
p791
I126
sS'eyesight'
p792
I43
sS'prepared'
p793
I2
sS'longner'
p794
I5
sS'3750'
p795
I10
sS'17639'
p796
I34
sS'way'
p797
I411
sS'kbrte'
p798
I4
sS'sfale'
p799
I4
sS'active'
p800
I3
sS'tons'
p801
I7
sS'viruses'
p802
I26
sS'enquiries'
p803
I16
sS'iceoe'
p804
I10
sS'loaded'
p805
I9
sS'250'
p806
I23
sS'contractor'
p807
I18
sS'256'
p808
I101
sS'november'
p809
I21
sS'bureaucratic'
p810
I4
sS'conference'
p811
I82
sS'bathroom'
p812
I6
sS'xanaex'
p813
I31
sS'proceeded'
p814
I6
sS'billing'
p815
I54
sS'union'
p816
I2
sS'fri'
p817
I39
sS'sal'
p818
I6
sS'microcap'
p819
I282
sS'been'
p820
I66
sS'quickly'
p821
I116
sS'advert'
p822
I21
sS'commission'
p823
I16
sS'estabas'
p824
I110
sS'much'
p825
I370
sS'communion'
p826
I19
sS'interest'
p827
I269
sS'craig'
p828
I4
sS'004227'
p829
I4
sS'eveis'
p830
I15
sS'michele'
p831
I12
sS'idol'
p832
I9
sS'teenager'
p833
I36
sS'website'
p834
I601
sS'repelled'
p835
I107
sS'life'
p836
I508
sS'innocent'
p837
I7
sS'lth'
p838
I20
sS'drugs'
p839
I357
sS'suppress'
p840
I21
sS'savi'
p841
I78
sS'2424'
p842
I10
sS'search'
p843
I210
sS'cription'
p844
I3
sS'shattering'
p845
I23
sS'fest'
p846
I30
sS'lift'
p847
I16
sS'child'
p848
I47
sS'164'
p849
I26
sS'worked'
p850
I7
sS'lousy'
p851
I14
sS'160'
p852
I5
sS'129'
p853
I130
sS'technews'
p854
I10
sS'has'
p855
I198
sS'vbvfl'
p856
I8
sS'aiw'
p857
I3
sS'leveis'
p858
I26
sS'say'
p859
I39
sS'n'
I706
sS'wavefrtl'
p860
I1
sS'near'
p861
I17
sS'kepler'
p862
I6
sS'suppose'
p863
I8
sS'drruggs'
p864
I19
sS'visit'
p865
I10
sS'ksdk'
p866
I27
sS'voice'
p867
I25
sS'gangbuster'
p868
I45
sS'anchor'
p869
I21
sS'launched'
p870
I17
sS'della'
p871
I16
sS'biotech'
p872
I75
sS'congratulation'
p873
I114
sS'evicting'
p874
I10
sS'mexico'
p875
I23
sS'ip'
p876
I17
sS'is'
p877
I2303
sS'iu'
p878
I15
sS'it'
p879
I1876
sS'expenses'
p880
I37
sS'player'
p881
I198
sS'pharm'
p882
I5
sS'im'
p883
I40
sS'il'
p884
I47
sS'conf'
p885
I124
sS'in'
p886
I2867
sS'ia'
p887
I10
sS'march'
p888
I9
sS'ic'
p889
I8
sS'pics'
p890
I8
sS'ie'
p891
I27
sS'pill'
p892
I85
sS'dirtyhippo'
p893
I3
sS'if'
p894
I326
sS'1816'
p895
I144
sS'bottles'
p896
I14
sS'anybody'
p897
I6
sS'patent'
p898
I8
sS'make'
p899
I1284
sS'who'
p900
I211
sS'sav'
p901
I77
sS'payyless'
p902
I25
sS'complex'
p903
I36
sS'toolbox'
p904
I26
sS'split'
p905
I71
sS'babies'
p906
I19
sS'dvds'
p907
I28
sS'wicked'
p908
I15
sS'oo'
p909
I74
sS'yusuf'
p910
I47
sS'genevieve'
p911
I9
sS'wheel'
p912
I25
sS'varenukha'
p913
I46
sS'effortlessly'
p914
I9
sS'bifocal'
p915
I26
sS'vlcodi'
p916
I29
sS'vlcodd'
p917
I12
sS'pick'
p918
I638
sS'speakers'
p919
I235
sS'evil'
p920
I6
sS'kit'
p921
I239
sS'suburb'
p922
I16
sS'kin'
p923
I11
sS'stoff'
p924
I13
sS'nis'
p925
I14
sS'rnd'
p926
I98
sS'opportunity'
p927
I319
sS'meddicat'
p928
I14
sS'thoughts'
p929
I6
sS'unsubscribe'
p930
I1
sS'climate'
p931
I15
sS'programs'
p932
I55
sS'dade'
p933
I21
sS'thu'
p934
I38
sS'evitra'
p935
I17
sS'investigation'
p936
I10
sS'ducts'
p937
I12
sS'ocean'
p938
I28
sS'overexpenditures'
p939
I18
sS'hispanic'
p940
I9
sS'8859'
p941
I834
sS'contact'
p942
I401
sS'greatest'
p943
I71
sS'mother'
p944
I28
sS'802'
p945
I96
sS'zwzm'
p946
I13
sS'corporate'
p947
I136
sS'investments'
p948
I168
sS'left'
p949
I85
sS'slutty'
p950
I74
sS'just'
p951
I1171
sS'kinky'
p952
I7
sS'athletic'
p953
I22
sS'photo'
p954
I14
sS'sporting'
p955
I26
sS'engine'
p956
I102
sS'29184'
p957
I2
sS'abramov'
p958
I10
sS'proposer'
p959
I61
sS'quotes'
p960
I28
sS'quintessential'
p961
I11
sS'human'
p962
I26
sS'svs'
p963
I8
sS'facts'
p964
I113
sS'ferruginous'
p965
I26
sS'cretin'
p966
I10
sS'yet'
p967
I67
sS'rkq'
p968
I24
sS'shiip'
p969
I13
sS'makeover'
p970
I13
sS'designers'
p971
I16
sS'sacrificial'
p972
I7
sS'335'
p973
I13
sS'photographer'
p974
I7
sS'ease'
p975
I14
sS'royal'
p976
I13
sS'pharmacy'
p977
I114
sS'greeat'
p978
I18
sS'greatly'
p979
I46
sS'softshop'
p980
I6
sS'dreams'
p981
I45
sS'easy'
p982
I632
sS'prison'
p983
I26
sS'elr'
p984
I49
sS'handicraftsman'
p985
I22
sS'ffffff'
p986
I1
sS'save'
p987
I752
sS'hat'
p988
I6
sS'aipproved'
p989
I3
sS'acceptors'
p990
I6
sS'opt'
p991
I1
sS'shoulder'
p992
I6
sS'felicitaciones'
p993
I6
sS'maya'
p994
I1
sS'babes'
p995
I27
sS'chemist'
p996
I136
sS'incorrectness'
p997
I6
sS'possible'
p998
I9
sS'caps'
p999
I52
sS'whichever'
p1000
I30
sS'discreet'
p1001
I26
sS'unique'
p1002
I62
sS'8956073'
p1003
I12
sS'bushy'
p1004
I9
sS'audiotape'
p1005
I4
sS'desire'
p1006
I22
sS'mediccationn'
p1007
I10
sS'seductive'
p1008
I4
sS'59'
p1009
I97
sS'58'
p1010
I84
sS'gift'
p1011
I82
sS'virgins'
p1012
I18
sS'55'
p1013
I123
sS'54'
p1014
I65
sS'57'
p1015
I6
sS'gifted'
p1016
I18
sS'orlando'
p1017
I42
sS'50'
p1018
I358
sS'53'
p1019
I7
sS'52'
p1020
I34
sS'alamo'
p1021
I14
sS'steps'
p1022
I41
sS'pervers'
p1023
I11
sS'night'
p1024
I24
sS'hung'
p1025
I10
sS'security'
p1026
I327
sS'starvation'
p1027
I5
sS'pharxmacy'
p1028
I324
sS'www'
p1029
I80
sS'right'
p1030
I404
sS'old'
p1031
I28
sS'deal'
p1032
I126
sS'people'
p1033
I142
sS'neigbhour'
p1034
I3
sS'51'
p1035
I42
sS'scathe'
p1036
I21
sS'symanntec'
p1037
I38
sS'emails'
p1038
I502
sS'jennifer'
p1039
I7
sS'sure'
p1040
I50
sS'hassle'
p1041
I8
sS'invoice'
p1042
I35
sS'dear'
p1043
I58
sS'advertise'
p1044
I15
sS'clalls'
p1045
I30
sS'quailty'
p1046
I9
sS'probiems'
p1047
I22
sS'nakadia'
p1048
I10
sS'romance'
p1049
I8
sS'viicodin'
p1050
I15
sS'for'
p1051
I5482
sS'bottom'
p1052
I2
sS'notification'
p1053
I1116
sS'opposite'
p1054
I40
sS'6517'
p1055
I14
sS'birdlike'
p1056
I9
sS'everything'
p1057
I172
sS'cira'
p1058
I7
sS'colloquy'
p1059
I5
sS'unit'
p1060
I42
sS'optimice'
p1061
I13
sS'christmas'
p1062
I104
sS'booking'
p1063
I31
sS'ecalis'
p1064
I6
sS'pahrma'
p1065
I12
sS'55486'
p1066
I8
sS'particular'
p1067
I5
sS'expires'
p1068
I22
sS'bole'
p1069
I9
sS'bold'
p1070
I15
sS'vacancy'
p1071
I32
sS'ambiien'
p1072
I24
sS'marketing'
p1073
I398
sS'harderr'
p1074
I17
sS'disponivel'
p1075
I14
sS'discount'
p1076
I86
sS'ple'
p1077
I9
sS'confrontation'
p1078
I61
sS'lips'
p1079
I9
sS'losing'
p1080
I47
sS'post'
p1081
I31
sS'wonders'
p1082
I17
sS'super'
p1083
I279
sS'valium'
p1084
I209
sS'oreo'
p1085
I4
sS'fca'
p1086
I17
sS'dollars'
p1087
I42
sS'o'
I366
sS'sizzling'
p1088
I40
sS'magazine'
p1089
I28
sS'plus'
p1090
I67
sS'anime'
p1091
I7
sS'aiert'
p1092
I243
sS'ardeidae'
p1093
I6
sS'noitce'
p1094
I33
sS'iigdp'
p1095
I30
sS'msn'
p1096
I8
sS'tramadool'
p1097
I36
sS'automatically'
p1098
I24
sS'shakers'
p1099
I124
sS'xu'
p1100
I12
sS'consulting'
p1101
I33
sS'whats'
p1102
I16
sS'sof'
p1103
I3
sS'pays'
p1104
I1
sS'som'
p1105
I13
sS'attorney'
p1106
I27
sS'son'
p1107
I53
sS'down'
p1108
I38
sS'rollout'
p1109
I33
sS'google'
p1110
I139
sS'ppu'
p1111
I10
sS'trafficked'
p1112
I10
sS'positive'
p1113
I132
sS'jnkex'
p1114
I1
sS'rely'
p1115
I6
sS'wal'
p1116
I6
sS'tips'
p1117
I22
sS'undiscovered'
p1118
I84
sS'amazingly'
p1119
I101
sS'support'
p1120
I74
sS'vision'
p1121
I3
sS'nova'
p1122
I14
sS'why'
p1123
I81
sS'mutade'
p1124
I12
sS'humorous'
p1125
I43
sS'anderson'
p1126
I2
sS'lanthanide'
p1127
I41
sS'call'
p1128
I150
sS'was'
p1129
I169
sS'happy'
p1130
I129
sS'lowest'
p1131
I123
sS'successfully'
p1132
I25
sS'amateur'
p1133
I7
sS'offering'
p1134
I13
sS'offer'
p1135
I157
sS'something'
p1136
I82
sS'maan'
p1137
I18
sS'heal'
p1138
I39
sS'paypal'
p1139
I153
sS'oxwq'
p1140
I14
sS'vitality'
p1141
I38
sS'undress'
p1142
I6
sS'wireless'
p1143
I175
sS'failure'
p1144
I643
sS'talents'
p1145
I6
sS'cheeap'
p1146
I56
sS'heap'
p1147
I4
sS'fastest'
p1148
I13
sS'dlscount'
p1149
I6
sS'lockstep'
p1150
I12
sS'analyst'
p1151
I315
sS'367886924'
p1152
I11
sS'220'
p1153
I33
sS'congratulations'
p1154
I394
sS'pavilion'
p1155
I80
sS'fairchild'
p1156
I25
sS'reproductive'
p1157
I76
sS'understood'
p1158
I43
sS'prevents'
p1159
I10
sS'inside'
p1160
I35
sS'attached'
p1161
I35
sS'bargain'
p1162
I13
sS'tell'
p1163
I120
sS'crystal'
p1164
I18
sS'economic'
p1165
I17
sS'adore'
p1166
I5
sS'trabajo'
p1167
I31
sS'attn'
p1168
I206
sS'daddy'
p1169
I1
sS'average'
p1170
I3
sS'7344'
p1171
I10
sS'passenger'
p1172
I59
sS'medication'
p1173
I194
sS'moore'
p1174
I17
sS'glans'
p1175
I26
sS'159'
p1176
I13
sS'infections'
p1177
I21
sS'tournament'
p1178
I37
sS'twenty'
p1179
I6
sS'proven'
p1180
I200
sS'drive'
p1181
I446
sS'restore'
p1182
I39
sS'fingering'
p1183
I21
sS'ruin'
p1184
I59
sS'assosiation'
p1185
I23
sS'levitr'
p1186
I11
sS'mediocre'
p1187
I9
sS'01405'
p1188
I4
sS'check'
p1189
I190
sS'nh'
p1190
I15
sS'ni'
p1191
I34
sS'nj'
p1192
I2
sS'leer'
p1193
I10
sS'no'
p1194
I1003
sS'na'
p1195
I31
sS'nb'
p1196
I17
sS'stake'
p1197
I21
sS'when'
p1198
I231
sS'timepieces'
p1199
I17
sS'ng'
p1200
I9
sS'nx'
p1201
I14
sS'kgy'
p1202
I15
sS'nz'
p1203
I2
sS'setting'
p1204
I23
sS'dhamhsa'
p1205
I47
sS'digital'
p1206
I201
sS'test'
p1207
I1
sS'jenkins'
p1208
I8
sS'ns'
p1209
I160
sS'nt'
p1210
I21
sS'csgu'
p1211
I2
sS'pntermi'
p1212
I9
sS'2500'
p1213
I6
sS'picture'
p1214
I21
sS'dcrgvabyssyzbr'
p1215
I8
sS'vhcw'
p1216
I50
sS'1848025'
p1217
I34
sS'congratulate'
p1218
I7
sS'models'
p1219
I15
sS'felt'
p1220
I120
sS'update'
p1221
I450
sS'connotative'
p1222
I29
sS'moresby'
p1223
I17
sS'journey'
p1224
I5
sS'intent'
p1225
I22
sS'oauei'
p1226
I10
sS'diem'
p1227
I25
sS'megastore'
p1228
I2
sS'entrust'
p1229
I48
sS'weekend'
p1230
I38
sS'senior'
p1231
I50
sS'125'
p1232
I1
sS'unmatched'
p1233
I220
sS'merle'
p1234
I7
sS'younger'
p1235
I86
sS'reduzca'
p1236
I6
sS'rabbit'
p1237
I14
sS'longer'
p1238
I122
sS'ezmlm'
p1239
I127
sS'98'
p1240
I84
sS'annuity'
p1241
I97
sS'mappable'
p1242
I14
sS'fears'
p1243
I8
sS'awaking'
p1244
I23
sS'ryder'
p1245
I26
sS'daily'
p1246
I253
sS'eso'
p1247
I125
sS'uncovered'
p1248
I84
sS'rough'
p1249
I180
sS'vietnam'
p1250
I15
sS'useful'
p1251
I18
sS'time'
p1252
I735
sS'improvidences'
p1253
I7
sS'teethe'
p1254
I10
sS'profits'
p1255
I139
sS'neighbors'
p1256
I6
sS'precise'
p1257
I35
sS'winnings'
p1258
I44
sS'rol'
p1259
I5
sS'adware'
p1260
I21
sS'chain'
p1261
I19
sS'dance'
p1262
I22
sS'skip'
p1263
I35
sS'accesos'
p1264
I19
sS'llp'
p1265
I13
sS'alternatives'
p1266
I10
sS'focus'
p1267
I25
sS'telefon'
p1268
I36
sS'integration'
p1269
I1
sS'leads'
p1270
I165
sS'phaaaarmaacy'
p1271
I10
sS'manager'
p1272
I54
sS'jizz'
p1273
I19
sS'per'
p1274
I173
sS'computation'
p1275
I9
sS'skin'
p1276
I38
sS'microshit'
p1277
I10
sS'ose'
p1278
I2
sS'competition'
p1279
I67
sS'macht'
p1280
I7
sS'afpe'
p1281
I15
sS'hold'
p1282
I13
sS'aagrra'
p1283
I24
sS'zone'
p1284
I33
sS'pron'
p1285
I10
sS'mmg'
p1286
I17
sS'flash'
p1287
I3
sS'94'
p1288
I27
sS'0'
I1037
sS'charge'
p1289
I114
sS'xdrugs'
p1290
I19
sS'decis'
p1291
I61
sS'supplies'
p1292
I140
sS'encrypted'
p1293
I4
sS'cheappesst'
p1294
I49
sS'must'
p1295
I5
sS'giga'
p1296
I14
sS'5182'
p1297
I96
sS'downloading'
p1298
I101
sS'advantage'
p1299
I45
sS'refinance'
p1300
I50
sS'lovvprices'
p1301
I23
sS'consolidation'
p1302
I7
sS'choice'
p1303
I30
sS'ped'
p1304
I38
sS'95754893'
p1305
I15
sS'vegas'
p1306
I65
sS'wo'
p1307
I9
sS'stays'
p1308
I3
sS'join'
p1309
I61
sS'blast'
p1310
I11
sS'minute'
p1311
I72
sS'onliiiiine'
p1312
I6
sS'stiffen'
p1313
I120
sS'discovered'
p1314
I58
sS'speed'
p1315
I19
sS'dio'
p1316
I5
sS'20046'
p1317
I1
sS'solves'
p1318
I14
sS'level'
p1319
I414
sS'did'
p1320
I144
sS'valentin'
p1321
I8
sS'payperview'
p1322
I6
sS'ouut'
p1323
I17
sS'brother'
p1324
I29
sS'levee'
p1325
I21
sS'ssva'
p1326
I34
sS'specials'
p1327
I148
sS'p'
I461
sS'settle'
p1328
I19
sS'theological'
p1329
I167
sS'scores'
p1330
I17
sS'team'
p1331
I48
sS'quick'
p1332
I258
sS'teac'
p1333
I81
sS'erections'
p1334
I5
sS'woven'
p1335
I26
sS'round'
p1336
I26
sS'added'
p1337
I21
sS'hlep'
p1338
I11
sS'prevent'
p1339
I76
sS'bulldozes'
p1340
I10
sS'says'
p1341
I7
sS'porn'
p1342
I149
sS'requirements'
p1343
I3
sS'discover'
p1344
I33
sS'cyber'
p1345
I19
sS'sign'
p1346
I144
sS'diapers'
p1347
I3
sS'cost'
p1348
I88
sS'pythagoras'
p1349
I56
sS'voucher'
p1350
I8
sS'duve'
p1351
I25
sS'pls'
p1352
I71
sS'depression'
p1353
I9
sS'port'
p1354
I79
sS'asceticism'
p1355
I98
sS'byronizes'
p1356
I17
sS'indochina'
p1357
I12
sS'bipeds'
p1358
I146
sS'bb'
p1359
I259
sS'curso'
p1360
I254
sS'assistance'
p1361
I569
sS'disease'
p1362
I8
sS'favour'
p1363
I47
sS'shares'
p1364
I580
sS'uniform'
p1365
I2
sS'current'
p1366
I107
sS'300'
p1367
I57
sS'vldeos'
p1368
I10
sS'adipren'
p1369
I34
sS'undeliverable'
p1370
I10
sS'goes'
p1371
I199
sS'anouncing'
p1372
I42
sS'reply'
p1373
I481
sS'appeal'
p1374
I8
sS'boost'
p1375
I117
sS'529'
p1376
I1
sS'filled'
p1377
I9
sS'mp'
p1378
I165
sS'satisfy'
p1379
I12
sS'iralsqasua'
p1380
I12
sS'angelina'
p1381
I38
sS'explosion'
p1382
I15
sS'mechanic'
p1383
I20
sS'prescriptions'
p1384
I66
sS'pornstars'
p1385
I18
sS'alkaline'
p1386
I12
sS'gener'
p1387
I10
sS'v'
I676
sS'woman'
p1388
I14
sS'bi'
p1389
I15
sS'corporation'
p1390
I5
sS'upgrade'
p1391
I75
sS'witch'
p1392
I51
sS'4359'
p1393
I17
sS'groups'
p1394
I21
sS'address'
p1395
I31
sS'alone'
p1396
I2
sS'fuddy'
p1397
I7
sS'along'
p1398
I15
sS'change'
p1399
I132
sS'wait'
p1400
I37
sS'box'
p1401
I13
sS'sending'
p1402
I493
sS'incoming'
p1403
I8
sS'dlp'
p1404
I117
sS'8456'
p1405
I26
sS'lazy'
p1406
I61
sS'zzocb'
p1407
I19
sS'guilty'
p1408
I21
sS'bv'
p1409
I9
sS'eri'
p1410
I15
sS'trial'
p1411
I51
sS'ltaiian'
p1412
I5
sS'pictorial'
p1413
I26
sS'boo'
p1414
I3
sS'bob'
p1415
I26
sS'nylon'
p1416
I71
sS'433'
p1417
I3
sS'massage'
p1418
I56
sS'carson'
p1419
I26
sS'fbs'
p1420
I6
sS'2860'
p1421
I13
sS'demodulate'
p1422
I2
sS'tasks'
p1423
I1
sS'love'
p1424
I360
sS'os'
p1425
I60
sS'extra'
p1426
I263
sS'vger'
p1427
I102
sS'cailis'
p1428
I11
sS'prefer'
p1429
I15
sS'hzhrb'
p1430
I7
sS'sincerely'
p1431
I12
sS'inexplicable'
p1432
I8
sS'nero'
p1433
I16
sS'apple'
p1434
I17
sS'fbi'
p1435
I15
sS'xanaax'
p1436
I68
sS'vlaagrra'
p1437
I30
sS'market'
p1438
I1140
sS'wholesal'
p1439
I6
sS'dmabi'
p1440
I14
sS'amazingg'
p1441
I17
sS'flag'
p1442
I22
sS'aed'
p1443
I135
sS'wealth'
p1444
I89
sS'working'
p1445
I29
sS'subvert'
p1446
I14
sS'0500'
p1447
I87
sS'angry'
p1448
I8
sS'ftware'
p1449
I25
sS'wcwknoanopkt'
p1450
I10
sS'paliourg'
p1451
I400
sS'helvetica'
p1452
I1
sS'sports'
p1453
I128
sS'insider'
p1454
I44
sS'live'
p1455
I522
sS'2443308'
p1456
I10
sS'andy'
p1457
I47
sS'mvae'
p1458
I2
sS'cdlfnvprj'
p1459
I33
sS'thru'
p1460
I145
sS'reorder'
p1461
I12
sS'loving'
p1462
I7
sS'899'
p1463
I1
sS'sharing'
p1464
I1
sS'symantec'
p1465
I4
sS'peniiss'
p1466
I8
sS'towers'
p1467
I27
sS'eollum'
p1468
I23
sS'ooo'
p1469
I20
sS'claus'
p1470
I9
sS'chocolate'
p1471
I12
sS'hii'
p1472
I6
sS'neugierig'
p1473
I21
sS'visual'
p1474
I147
sS'ulalaaa'
p1475
I10
sS'xianax'
p1476
I6
sS'cases'
p1477
I175
sS'effort'
p1478
I17
sS'fly'
p1479
I170
sS'logos'
p1480
I125
sS'valued'
p1481
I21
sS'uluslararasi'
p1482
I36
sS'mdsadvkthe'
p1483
I19
sS'cas'
p1484
I11
sS'car'
p1485
I53
sS'cap'
p1486
I598
sS'flu'
p1487
I35
sS'soul'
p1488
I6
sS'airpanel'
p1489
I97
sS'cat'
p1490
I34
sS'ctfg'
p1491
I33
sS'soup'
p1492
I14
sS'kinja'
p1493
I9
sS'can'
p1494
I1226
sS'cam'
p1495
I38
sS'gambia'
p1496
I9
sS'growing'
p1497
I161
sS'renew'
p1498
I18
sS'tune'
p1499
I20
sS'465335'
p1500
I11
sS'roundtable'
p1501
I24
sS'claim'
p1502
I240
sS'crazy'
p1503
I32
sS'performer'
p1504
I65
sS'32053'
p1505
I42
sS'nursing'
p1506
I92
sS'kenneth'
p1507
I20
sS'tock'
p1508
I210
sS'december'
p1509
I61
sS'awesome'
p1510
I20
sS'jackrabbit'
p1511
I83
sS'carroll'
p1512
I30
sS'confused'
p1513
I27
sS'nascar'
p1514
I49
sS'sample'
p1515
I112
sS'refina'
p1516
I25
sS'stonewall'
p1517
I12
sS'ter'
p1518
I14
sS'allowed'
p1519
I31
sS'gastos'
p1520
I6
sS'wrinkles'
p1521
I9
sS'spe'
p1522
I27
sS'clair'
p1523
I6
sS'22311'
p1524
I13
sS'arsenide'
p1525
I16
sS'fpa'
p1526
I69
sS'winter'
p1527
I26
sS'shoop'
p1528
I17
sS'inheritance'
p1529
I74
sS'uae'
p1530
I16
sS'discussion'
p1531
I137
sS'charset'
p1532
I1241
sS'ping'
p1533
I22
sS'sized'
p1534
I3
sS'1'
I1970
sS'till'
p1535
I12
sS'sunday'
p1536
I31
sS'flank'
p1537
I16
sS'177731'
p1538
I6
sS'25711'
p1539
I31
sS'repulsion'
p1540
I42
sS'guarantee'
p1541
I6
sS'economy'
p1542
I68
sS'cavil'
p1543
I4
sS'beneflts'
p1544
I17
sS'product'
p1545
I188
sS'mar'
p1546
I23
sS'mat'
p1547
I14
sS'aoa'
p1548
I54
sS'information'
p1549
I908
sS'may'
p1550
I127
sS'rm'
p1551
I27
sS'fed'
p1552
I40
sS'spot'
p1553
I24
sS'needs'
p1554
I81
sS'lucky'
p1555
I127
sS'applications'
p1556
I8
sS'membership'
p1557
I344
sS'birthday'
p1558
I12
sS'designed'
p1559
I1
sS'courses'
p1560
I23
sS'date'
p1561
I147
sS'waste'
p1562
I3
sS'suck'
p1563
I7
sS'iraq'
p1564
I60
sS'nomination'
p1565
I79
sS'grow'
p1566
I184
sS'leve'
p1567
I8
sS'man'
p1568
I207
sS'sx'
p1569
I15
sS'natural'
p1570
I198
sS'remember'
p1571
I27
sS'aekdju'
p1572
I12
sS'whenever'
p1573
I6
sS'maybe'
p1574
I10
sS'ltd'
p1575
I14
sS'sp'
p1576
I56
sS'explicit'
p1577
I55
sS'avant'
p1578
I99
sS'su'
p1579
I51
sS'st'
p1580
I313
sS'q'
I761
sS'hon'
p1581
I5
sS'burmese'
p1582
I13
sS'sh'
p1583
I58
sS'so'
p1584
I241
sS'sm'
p1585
I55
sS'swollen'
p1586
I57
sS'needeeed'
p1587
I4
sS'sa'
p1588
I42
sS'se'
p1589
I19
sS'legitimate'
p1590
I53
sS'exclusive'
p1591
I11
sS'unsolicited'
p1592
I17
sS'acts'
p1593
I6
sS'lsc'
p1594
I11
sS'distributors'
p1595
I153
sS'deluxe'
p1596
I7
sS'undervalued'
p1597
I166
sS'blocker'
p1598
I10
sS'differences'
p1599
I8
sS'127'
p1600
I1
sS'raised'
p1601
I12
sS'years'
p1602
I162
sS'hiring'
p1603
I32
sS'lst'
p1604
I27
sS'rndlen'
p1605
I2
sS'tablets'
p1606
I208
sS'descriambler'
p1607
I2
sS'cuts'
p1608
I19
sS'nauuughty'
p1609
I8
sS'ttb'
p1610
I2
sS'cold'
p1611
I9
sS'still'
p1612
I110
sS'cola'
p1613
I63
sS'jif'
p1614
I2
sS'forma'
p1615
I35
sS'group'
p1616
I81
sS'monitor'
p1617
I157
sS'acknowledge'
p1618
I17
sS'interesting'
p1619
I59
sS'merindia'
p1620
I15
sS'window'
p1621
I25
sS'offers'
p1622
I82
sS'haddad'
p1623
I10
sS'tburn'
p1624
I6
sS'djf'
p1625
I33
sS'policy'
p1626
I39
sS'mail'
p1627
I711
sS'msnbc'
p1628
I16
sS'main'
p1629
I10
sS'decertify'
p1630
I4
sS'texas'
p1631
I6
sS'instantly'
p1632
I79
sS'dough'
p1633
I4
sS'non'
p1634
I86
sS'instancias'
p1635
I33
sS'ambllen'
p1636
I36
sS'qp'
p1637
I2
sS'recipes'
p1638
I20
sS'136'
p1639
I50
sS'sooner'
p1640
I18
sS'dows'
p1641
I2
sS'records'
p1642
I26
sS'conquer'
p1643
I13
sS'subscribers'
p1644
I86
sS'half'
p1645
I20
sS'not'
p1646
I675
sS'leews'
p1647
I7
sS'nov'
p1648
I67
sS'now'
p1649
I786
sS'enlargkmknt'
p1650
I3
sS'halo'
p1651
I20
sS'possess'
p1652
I14
sS'kqttnvk'
p1653
I4
sS'term'
p1654
I61
sS'lowprice'
p1655
I12
sS'name'
p1656
I111
sS'chivalrousness'
p1657
I6
sS'january'
p1658
I372
sS'drop'
p1659
I39
sS'possibilities'
p1660
I1
sS'desde'
p1661
I19
sS'nqwjsb'
p1662
I14
sS'rock'
p1663
I165
sS'pharmacies'
p1664
I60
sS'needn'
p1665
I26
sS'ters'
p1666
I14
sS'imperious'
p1667
I2
sS'823'
p1668
I12
sS'vogue'
p1669
I7
sS'em'
p1670
I556
sS'el'
p1671
I16
sS'domain'
p1672
I9
sS'en'
p1673
I131
sS'ei'
p1674
I10
sS'ee'
p1675
I192
sS'ed'
p1676
I149
sS'eg'
p1677
I10
sS'ef'
p1678
I26
sS'poker'
p1679
I6
sS'borrow'
p1680
I1
sS'breakthrough'
p1681
I47
sS'persian'
p1682
I13
sS'pillz'
p1683
I14
sS'ex'
p1684
I5
sS'year'
p1685
I433
sS'eu'
p1686
I8
sS'et'
p1687
I28
sS'girl'
p1688
I53
sS'summary'
p1689
I11
sS'digression'
p1690
I10
sS'pills'
p1691
I547
sS'es'
p1692
I122
sS'er'
p1693
I35
sS'album'
p1694
I12
sS'living'
p1695
I26
sS'canvas'
p1696
I7
sS'medications'
p1697
I78
sS'jackson'
p1698
I21
sS'791'
p1699
I14
sS'space'
p1700
I28
sS'profit'
p1701
I95
sS'20055'
p1702
I1
sS'yhaxc'
p1703
I3
sS'mortgash'
p1704
I20
sS'parallelogram'
p1705
I17
sS'qc'
p1706
I2
sS'looking'
p1707
I295
sS'womenn'
p1708
I2
sS'autoreply'
p1709
I3
sS'ilug'
p1710
I615
sS'papers'
p1711
I108
sS'wide'
p1712
I61
sS'internet'
p1713
I536
sS'fargo'
p1714
I12
sS'insecure'
p1715
I8
sS'assurance'
p1716
I17
sS'processed'
p1717
I33
sS'medicationns'
p1718
I15
sS'apwl'
p1719
I93
sS'older'
p1720
I9
sS'erp'
p1721
I4
sS'million'
p1722
I187
sS'cart'
p1723
I26
sS'quite'
p1724
I8
sS'smudgy'
p1725
I16
sS'oxyyyyconttin'
p1726
I4
sS'lab'
p1727
I14
sS'merldll'
p1728
I15
sS'longines'
p1729
I12
sS'org'
p1730
I261
sS'erectile'
p1731
I31
sS'card'
p1732
I156
sS'care'
p1733
I303
sS'102056072'
p1734
I15
sS'zkoogvxgfhqlbksflur'
p1735
I9
sS'langley'
p1736
I8
sS'spam'
p1737
I114
sS'diann'
p1738
I5
sS'honest'
p1739
I82
sS'turn'
p1740
I81
sS'unhappy'
p1741
I8
sS'oppurtunities'
p1742
I34
sS'massive'
p1743
I52
sS'181'
p1744
I33
sS'invitation'
p1745
I88
sS'dissolvab'
p1746
I10
sS'510'
p1747
I96
sS'prescrip'
p1748
I1
sS'sho'
p1749
I13
sS'neglect'
p1750
I49
sS'prescripiton'
p1751
I49
sS'first'
p1752
I217
sS'presidentielles'
p1753
I99
sS'620'
p1754
I14
sS'saving'
p1755
I24
sS'closers'
p1756
I27
sS'reveals'
p1757
I55
sS'xa'
p1758
I41
sS'safety'
p1759
I17
sS'ong'
p1760
I2
sS'megasite'
p1761
I14
sS'soaring'
p1762
I54
sS'americans'
p1763
I10
sS'fast'
p1764
I123
sS'pliant'
p1765
I10
sS'improvements'
p1766
I8
sS'ring'
p1767
I17
sS'fight'
p1768
I12
sS'open'
p1769
I98
sS'tomorrow'
p1770
I168
sS'egty'
p1771
I135
sS'size'
p1772
I113
sS'stuffer'
p1773
I15
sS'city'
p1774
I46
sS'little'
p1775
I198
sS'negocio'
p1776
I19
sS'sheet'
p1777
I251
sS'silent'
p1778
I17
sS'gewinn'
p1779
I25
sS'efforts'
p1780
I8
sS'ggra'
p1781
I14
sS'bite'
p1782
I4
sS'burst'
p1783
I168
sS'europe'
p1784
I10
sS'xxnfwvwymvxd'
p1785
I5
sS'anyone'
p1786
I55
sS'savvings'
p1787
I22
sS'returns'
p1788
I220
sS'2'
I1158
sS'types'
p1789
I4
sS'freightmart'
p1790
I10
sS'scription'
p1791
I1
sS'white'
p1792
I12
sS'drugstore'
p1793
I15
sS'friend'
p1794
I109
sS'excellent'
p1795
I9
sS'prissy'
p1796
I26
sS'fraction'
p1797
I90
sS'courier'
p1798
I10
sS'that'
p1799
I444
sS'moscow'
p1800
I37
sS'continuous'
p1801
I29
sS'pnt'
p1802
I15
sS'antee'
p1803
I3
sS'padding'
p1804
I12
sS'massager'
p1805
I11
sS'nvhcs'
p1806
I22
sS'iinks'
p1807
I14
sS'goodd'
p1808
I37
sS'butt'
p1809
I18
sS'ppl'
p1810
I11
sS'specialists'
p1811
I96
sS'mmercials'
p1812
I29
sS'alleviations'
p1813
I17
sS'surged'
p1814
I22
sS'than'
p1815
I439
sS'11'
p1816
I280
sS'10'
p1817
I351
sS'13'
p1818
I150
sS'12'
p1819
I339
sS'15'
p1820
I338
sS'14'
p1821
I141
sS'17'
p1822
I246
sS'16'
p1823
I102
sS'19'
p1824
I283
sS'18'
p1825
I153
sS'require'
p1826
I27
sS'hstoett'
p1827
I3
sS'liffe'
p1828
I16
sS'ueytfw'
p1829
I32
sS'fedexed'
p1830
I30
sS'r'
I840
sS'unparalleled'
p1831
I1
sS'venture'
p1832
I18
sS'were'
p1833
I45
sS'cards'
p1834
I74
sS'winkle'
p1835
I17
sS'iption'
p1836
I3
sS'luge'
p1837
I8
sS'and'
p1838
I4470
sS'onseek'
p1839
I53
sS'ang'
p1840
I18
sS'systemworks'
p1841
I96
sS'ana'
p1842
I6
sS'investors'
p1843
I365
sS'cranston'
p1844
I26
sS'appreciate'
p1845
I56
sS'pro'
p1846
I251
sS'premier'
p1847
I73
sS'ghuru'
p1848
I7
sS'locations'
p1849
I42
sS'sad'
p1850
I4
sS'windsurf'
p1851
I16
sS'taciturnly'
p1852
I7
sS'adele'
p1853
I8
sS'marinfonet'
p1854
I7
sS'breakfast'
p1855
I261
sS'downdraft'
p1856
I4
sS'any'
p1857
I83
sS'kevin'
p1858
I10
sS'sat'
p1859
I10
sS'ciallls'
p1860
I15
sS'adlpex'
p1861
I56
sS'hawaiian'
p1862
I5
sS'cigarettes'
p1863
I25
sS'photosh'
p1864
I12
sS'answering'
p1865
I9
sS'ideas'
p1866
I17
sS'shocked'
p1867
I17
sS'note'
p1868
I31
sS'equipment'
p1869
I45
sS'coplanar'
p1870
I4
sS'potential'
p1871
I57
sS'commissions'
p1872
I55
sS'take'
p1873
I395
sS'online'
p1874
I1492
sS'performance'
p1875
I148
sS'secure'
p1876
I23
sS'ganha'
p1877
I3
sS'ymuhfikr'
p1878
I30
sS'200'
p1879
I172
sS'videos'
p1880
I2
sS'202'
p1881
I26
sS'pain'
p1882
I339
sS'goodbye'
p1883
I2
sS'normal'
p1884
I25
sS'price'
p1885
I337
sS'uyz'
p1886
I22
sS'paid'
p1887
I73
sS'insanity'
p1888
I57
sS'visitors'
p1889
I34
sS'printed'
p1890
I1
sS'ppharmacybymail'
p1891
I16
sS'requiremus'
p1892
I26
sS'cpu'
p1893
I4
sS'america'
p1894
I162
sS'overlooked'
p1895
I50
sS'planning'
p1896
I30
sS'forever'
p1897
I45
sS'operate'
p1898
I30
sS'neuro'
p1899
I30
sS'surprising'
p1900
I72
sS'notifications'
p1901
I97
sS'considered'
p1902
I14
sS'antidotes'
p1903
I123
sS'harmacies'
p1904
I17
sS'later'
p1905
I7
sS'directory'
p1906
I50
sS'sale'
p1907
I215
sS'mrs'
p1908
I149
sS'ways'
p1909
I10
sS'dodecahedron'
p1910
I8
sS'slaves'
p1911
I3
sS'professional'
p1912
I94
sS'ppntufbis'
p1913
I14
sS'athl'
p1914
I101
sS'qrklx'
p1915
I7
sS'lium'
p1916
I53
sS'shop'
p1917
I85
sS'rating'
p1918
I153
sS'maxine'
p1919
I15
sS'ytu'
p1920
I24
sS'shot'
p1921
I43
sS'229'
p1922
I4
sS'offfers'
p1923
I14
sS'clutters'
p1924
I10
sS'cheat'
p1925
I25
sS'cheap'
p1926
I1095
sS'contemporary'
p1927
I6
sS'spyware'
p1928
I68
sS'fifty'
p1929
I21
sS'veranda'
p1930
I16
sS'legalization'
p1931
I14
sS'bright'
p1932
I22
sS'scoop'
p1933
I25
sS'flack'
p1934
I21
sS'mexican'
p1935
I2
sS'aggressive'
p1936
I438
sS'superb'
p1937
I39
sS'data'
p1938
I78
sS'boom'
p1939
I12
sS'ground'
p1940
I161
sS'xml'
p1941
I1
sS'gage'
p1942
I12
sS'semaine'
p1943
I21
sS'slop'
p1944
I16
sS'ith'
p1945
I29
sS'telefonu'
p1946
I13
sS'favor'
p1947
I16
sS'romanian'
p1948
I122
sS'treasure'
p1949
I28
sS'behind'
p1950
I11
sS'fluid'
p1951
I19
sS'either'
p1952
I12
sS'september'
p1953
I2
sS'only'
p1954
I870
sS'going'
p1955
I108
sS'lipids'
p1956
I8
sS'treasury'
p1957
I21
sS'watching'
p1958
I201
sS'nouvelle'
p1959
I12
sS'awareness'
p1960
I20
sS'trivia'
p1961
I12
sS'info'
p1962
I707
sS'handycam'
p1963
I1
sS'stay'
p1964
I61
sS'get'
p1965
I1450
sS'committed'
p1966
I7
sS'assistant'
p1967
I6
sS'reps'
p1968
I32
sS'wrhoes'
p1969
I3
sS'soon'
p1970
I71
sS'isn'
p1971
I16
sS'cannot'
p1972
I33
sS'alilum'
p1973
I24
sS'margaret'
p1974
I37
sS'progress'
p1975
I6
sS'sse'
p1976
I26
sS'utf'
p1977
I230
sS'awaiting'
p1978
I21
sS'trade'
p1979
I107
sS'receive'
p1980
I94
sS'celebrate'
p1981
I12
sS'repliacs'
p1982
I26
sS'prime'
p1983
I14
sS'instonilne'
p1984
I11
sS'regarding'
p1985
I238
sS'resource'
p1986
I49
sS'zenoil'
p1987
I5
sS'assimilate'
p1988
I26
sS'versions'
p1989
I580
sS'wednesday'
p1990
I20
sS'kabila'
p1991
I55
sS'morning'
p1992
I44
sS'ambling'
p1993
I21
sS'explorer'
p1994
I20
sS'flamenca'
p1995
I9
sS'uncover'
p1996
I55
sS'where'
p1997
I138
sS'husband'
p1998
I37
sS'helps'
p1999
I12
sS'kernel'
p2000
I204
sS'stag'
p2001
I10
sS'ricci'
p2002
I11
sS'espa'
p2003
I8
sS'breathtaking'
p2004
I117
sS'signs'
p2005
I2
sS'maldive'
p2006
I16
sS'relative'
p2007
I33
sS'avontuurtje'
p2008
I3
sS'platinumstock'
p2009
I68
sS'college'
p2010
I174
sS'lnk'
p2011
I46
sS'calendar'
p2012
I12
sS'aroused'
p2013
I6
sS'concern'
p2014
I9
sS'cneoraceous'
p2015
I9
sS'planet'
p2016
I9
sS'830'
p2017
I1
sS'pcmcia'
p2018
I81
sS'exactseek'
p2019
I44
sS'mortgage'
p2020
I275
sS'farmers'
p2021
I2
sS'vkp'
p2022
I16
sS'review'
p2023
I60
sS'bootleg'
p2024
I2
sS'sites'
p2025
I70
sS'ambl'
p2026
I56
sS'90702'
p2027
I8
sS'3'
I906
sS'horney'
p2028
I11
sS'proposta'
p2029
I30
sS'ambi'
p2030
I19
sS'john'
p2031
I11
sS'comp'
p2032
I18
sS'herbal'
p2033
I4
sS'llgra'
p2034
I36
sS'teens'
p2035
I26
sS'reading'
p2036
I148
sS'woorks'
p2037
I18
sS'verification'
p2038
I68
sS'affordable'
p2039
I194
sS'promiscuity'
p2040
I26
sS'notice'
p2041
I1007
sS'nol'
p2042
I12
sS'jobs'
p2043
I11
sS'cortisol'
p2044
I10
sS'anti'
p2045
I8
sS'controllable'
p2046
I5
sS'dinero'
p2047
I26
sS'dome'
p2048
I49
sS'handbooks'
p2049
I6
sS'killing'
p2050
I60
sS'jm'
p2051
I3
sS'dixieland'
p2052
I7
sS'awards'
p2053
I78
sS'armenian'
p2054
I2
sS'hurts'
p2055
I12
sS'hand'
p2056
I26
sS'article'
p2057
I61
sS'hydrate'
p2058
I43
sS'jg'
p2059
I13
sS'come'
p2060
I118
sS'tue'
p2061
I39
sS'jb'
p2062
I11
sS'dates'
p2063
I10
sS'installation'
p2064
I11
sS'superclub'
p2065
I14
sS'efficiency'
p2066
I1
sS'many'
p2067
I23
sS'voicemail'
p2068
I10
sS'geeeeeneriic'
p2069
I20
sS'rge'
p2070
I3
sS'millionaire'
p2071
I117
sS'somewhere'
p2072
I9
sS's'
I2838
sS'iv'
p2073
I8
sS'ntsj'
p2074
I13
sS'ejaculate'
p2075
I9
sS'lemon'
p2076
I6
sS'logines'
p2077
I6
sS'calumniate'
p2078
I26
sS'comes'
p2079
I23
sS'mandamus'
p2080
I5
sS'150'
p2081
I14
sS'color'
p2082
I29
sS'cy'
p2083
I66
sS'robotics'
p2084
I118
sS'por'
p2085
I51
sS'dispatch'
p2086
I43
sS'custo'
p2087
I61
sS'60'
p2088
I182
sS'61'
p2089
I21
sS'ghirardelli'
p2090
I12
sS'63'
p2091
I15
sS'jammed'
p2092
I14
sS'65'
p2093
I66
sS'learning'
p2094
I24
sS'viagrr'
p2095
I23
sS'68'
p2096
I35
sS'69'
p2097
I20
sS'renewals'
p2098
I20
sS'pharmacists'
p2099
I5
sS'forecasted'
p2100
I10
sS'kelly'
p2101
I31
sS'late'
p2102
I5
sS'awsome'
p2103
I15
sS'oliver'
p2104
I52
sS'cycling'
p2105
I17
sS'booms'
p2106
I113
sS'howard'
p2107
I9
sS'stretch'
p2108
I12
sS'abdul'
p2109
I19
sS'bannerwerbung'
p2110
I10
sS'informed'
p2111
I2
sS'vacation'
p2112
I9
sS'pixels'
p2113
I1
sS'dsps'
p2114
I146
sS'skel'
p2115
I66
sS'ocaw'
p2116
I33
sS'ligt'
p2117
I36
sS'technical'
p2118
I124
sS'recaptures'
p2119
I10
sS'vlcod'
p2120
I4
sS'500'
p2121
I171
sS'ruining'
p2122
I7
sS'wants'
p2123
I78
sS'gests'
p2124
I1
sS'qsa'
p2125
I27
sS'shopping'
p2126
I117
sS'vice'
p2127
I81
sS'vaticano'
p2128
I21
sS'sgclude'
p2129
I15
sS'administrator'
p2130
I2
sS'6521'
p2131
I30
sS'photos'
p2132
I22
sS'doesn'
p2133
I1
sS'declaration'
p2134
I22
sS'turalbutpow'
p2135
I17
sS'hardcore'
p2136
I25
sS'spirit'
p2137
I6
sS'those'
p2138
I21
sS'mart'
p2139
I23
sS'paying'
p2140
I110
sS'cyuh'
p2141
I26
sS'pti'
p2142
I12
sS'these'
p2143
I267
sS'might'
p2144
I35
sS'explication'
p2145
I7
sS'premature'
p2146
I78
sS'costco'
p2147
I33
sS'viagrga'
p2148
I7
sS'cure'
p2149
I94
sS'nlght'
p2150
I9
sS'coca'
p2151
I49
sS'promising'
p2152
I50
sS'situation'
p2153
I201
sS'trica'
p2154
I3
sS'hdl'
p2155
I19
sS'fyjlxqcbp'
p2156
I12
sS'taking'
p2157
I17
sS'elgin'
p2158
I49
sS'31446'
p2159
I13
sS'handy'
p2160
I16
sS'conferences'
p2161
I108
sS'wouldn'
p2162
I3
sS'iali'
p2163
I15
sS'canon'
p2164
I8
sS'them'
p2165
I90
sS'against'
p2166
I72
sS'sleeping'
p2167
I49
sS'someone'
p2168
I96
sS'cheapsoft'
p2169
I11
sS'contract'
p2170
I57
sS'beaver'
p2171
I10
sS'8403'
p2172
I46
sS'technology'
p2173
I197
sS'ship'
p2174
I22
sS'volition'
p2175
I15
sS'softabs'
p2176
I19
sS'appanage'
p2177
I30
sS'different'
p2178
I23
sS'widows'
p2179
I7
sS'lity'
p2180
I2
sS'combination'
p2181
I83
sS'pav'
p2182
I3
sS'doctor'
p2183
I100
sS'throwing'
p2184
I8
sS'pay'
p2185
I195
sS'coke'
p2186
I14
sS'confidant'
p2187
I44
sS'same'
p2188
I87
sS'surveillance'
p2189
I7
sS'birden'
p2190
I13
sS'ya'
p2191
I165
sS'fatima'
p2192
I27
sS'wizards'
p2193
I1
sS'inquiry'
p2194
I71
sS'lovers'
p2195
I13
sS'clammy'
p2196
I14
sS'figures'
p2197
I12
sS'reminder'
p2198
I7
sS'document'
p2199
I2
sS'pal'
p2200
I39
sS'events'
p2201
I26
sS'standouts'
p2202
I18
sS'allmerica'
p2203
I57
sS'week'
p2204
I286
sS'oil'
p2205
I311
sS'downloads'
p2206
I23
sS'assist'
p2207
I94
sS'driver'
p2208
I85
sS'producers'
p2209
I25
sS'running'
p2210
I35
sS'wired'
p2211
I118
sS'abalone'
p2212
I9
sS'oiv'
p2213
I6
sS'totally'
p2214
I10
sS'cartoon'
p2215
I3
sS'cellphone'
p2216
I3
sS'udtih'
p2217
I10
sS'tracking'
p2218
I11
sS'keeping'
p2219
I10
sS'minimize'
p2220
I37
sS'macro'
p2221
I58
sS'convenes'
p2222
I8
sS'fmmx'
p2223
I14
sS'wellington'
p2224
I6
sS'robert'
p2225
I9
sS'rder'
p2226
I6
sS'mortgages'
p2227
I38
sS'41'
p2228
I10
sS'without'
p2229
I268
sS'solve'
p2230
I5
sS'relief'
p2231
I83
sS'bottle'
p2232
I4
sS'cialis'
p2233
I426
sS'model'
p2234
I19
sS'gates'
p2235
I56
sS'uk'
p2236
I6
sS'being'
p2237
I285
sS'money'
p2238
I1208
sS'compound'
p2239
I28
sS'smallcap'
p2240
I558
sS'valuable'
p2241
I14
sS'locks'
p2242
I12
sS'kill'
p2243
I47
sS'greetings'
p2244
I10
sS'ancestral'
p2245
I9
sS'touch'
p2246
I7
sS'baptismal'
p2247
I10
sS'guys'
p2248
I23
sS'weekly'
p2249
I173
sS'transalpine'
p2250
I10
sS'gussing'
p2251
I4
sS'polar'
p2252
I44
sS'rolexes'
p2253
I68
sS'autocad'
p2254
I6
sS'carylon'
p2255
I68
sS'womans'
p2256
I3
sS'leth'
p2257
I107
sS'acton'
p2258
I26
sS'desktop'
p2259
I34
sS'lender'
p2260
I15
sS'wall'
p2261
I679
sS'lets'
p2262
I8
sS'interested'
p2263
I75
sS'4'
I698
sS'versa'
p2264
I81
sS'ghostly'
p2265
I16
sS'veryy'
p2266
I18
sS'extensive'
p2267
I7
sS'tuesday'
p2268
I194
sS'momentum'
p2269
I235
sS'vicodin'
p2270
I188
sS'real'
p2271
I664
sS'lections'
p2272
I99
sS'starving'
p2273
I10
sS'movie'
p2274
I83
sS'fucked'
p2275
I6
sS'around'
p2276
I13
sS'kills'
p2277
I5
sS'cadenza'
p2278
I5
sS'read'
p2279
I548
sS'mor'
p2280
I12
sS'harmacy'
p2281
I3
sS'income'
p2282
I240
sS'discontinue'
p2283
I16
sS'regis'
p2284
I31
sS'neuer'
p2285
I13
sS'bitch'
p2286
I16
sS'mon'
p2287
I64
sS'mom'
p2288
I38
sS'chemisorb'
p2289
I34
sS'world'
p2290
I76
sS'psp'
p2291
I14
sS'accepted'
p2292
I11
sS'lady'
p2293
I9
sS'xaanax'
p2294
I24
sS'dare'
p2295
I23
sS'satisfaction'
p2296
I8
sS'clal'
p2297
I90
sS'depot'
p2298
I19
sS'fortune'
p2299
I144
sS'lolitas'
p2300
I18
sS'pounds'
p2301
I48
sS'kenney'
p2302
I33
sS'patrick'
p2303
I7
sS'opra'
p2304
I17
sS'greeting'
p2305
I60
sS'indisputable'
p2306
I9
sS'server'
p2307
I125
sS'wbm'
p2308
I10
sS'tsunami'
p2309
I62
sS'grants'
p2310
I397
sS't'
I1375
sS'rendimiento'
p2311
I13
sS'gji'
p2312
I8
sS'output'
p2313
I37
sS'tess'
p2314
I10
sS'reduced'
p2315
I82
sS'3000'
p2316
I17
sS'66'
p2317
I13
sS'uppercase'
p2318
I1
sS'mlcros'
p2319
I38
sS'moving'
p2320
I54
sS'esplanade'
p2321
I10
sS'pk'
p2322
I93
sS'yyyy'
p2323
I35
sS'cancel'
p2324
I21
sS'qgez'
p2325
I33
sS'cr'
p2326
I39
sS'images'
p2327
I359
sS'guillermo'
p2328
I9
sS'trsut'
p2329
I14
sS'cletempoly'
p2330
I3
sS'joao'
p2331
I30
sS'provided'
p2332
I16
sS'toners'
p2333
I42
sS'redefined'
p2334
I5
sS'confirm'
p2335
I87
sS'memories'
p2336
I4
sS'freeq'
p2337
I4
sS'ryan'
p2338
I14
sS'legal'
p2339
I275
sS'cpunks'
p2340
I70
sS'leocb'
p2341
I19
sS'critical'
p2342
I15
sS'hipster'
p2343
I2
sS'4900'
p2344
I14
sS'provides'
p2345
I81
sS'provider'
p2346
I14
sS'910'
p2347
I101
sS'victory'
p2348
I15
sS'tdk'
p2349
I82
sS'chronoswiss'
p2350
I16
sS'welcome'
p2351
I9
sS'epson'
p2352
I30
sS'reasonable'
p2353
I4
sS'business'
p2354
I924
sS'norberto'
p2355
I6
sS'seconds'
p2356
I5
sS'debute'
p2357
I235
sS'broker'
p2358
I272
sS'tuition'
p2359
I1
sS'senora'
p2360
I9
sS'visits'
p2361
I28
sS'dpie'
p2362
I21
sS'thailand'
p2363
I7
sS'artik'
p2364
I13
sS'majoring'
p2365
I1
sS'ignored'
p2366
I161
sS'throw'
p2367
I21
sS'_'
I3586
sS'manufacturer'
p2368
I1
sS'847'
p2369
I14
sS'on'
p2370
I3774
sS'ok'
p2371
I78
sS'sennse'
p2372
I17
sS'package'
p2373
I8
sS'of'
p2374
I3095
sS'industry'
p2375
I306
sS'favorite'
p2376
I33
sS'anfrage'
p2377
I10
sS'cartier'
p2378
I18
sS'oy'
p2379
I22
sS'act'
p2380
I8
sS'ow'
p2381
I175
sS'ou'
p2382
I40
sS'376'
p2383
I12
sS'mamie'
p2384
I10
sS'or'
p2385
I291
sS'road'
p2386
I23
sS'op'
p2387
I128
sS'4722704408'
p2388
I5
sS'ladies'
p2389
I3
sS'lands'
p2390
I7
sS'mullers'
p2391
I13
sS'braggart'
p2392
I27
sS'implantation'
p2393
I7
sS'apaliourg'
p2394
I3
sS'antidote'
p2395
I10
sS'sql'
p2396
I7
sS'essex'
p2397
I41
sS'angelo'
p2398
I28
sS'classics'
p2399
I6
sS'everyone'
p2400
I19
sS'cent'
p2401
I9
sS'strip'
p2402
I117
sS'financial'
p2403
I310
sS'youu'
p2404
I17
sS'cval'
p2405
I18
sS'your'
p2406
I8510
sS'tropical'
p2407
I8
sS'log'
p2408
I16
sS'prepare'
p2409
I20
sS'backwater'
p2410
I16
sS'20032'
p2411
I1
sS'omega'
p2412
I43
sS'strictly'
p2413
I29
sS'there'
p2414
I163
sS'hey'
p2415
I264
sS'320719'
p2416
I30
sS'pic'
p2417
I26
sS'start'
p2418
I339
sS'low'
p2419
I502
sS'catv'
p2420
I10
sS'brazilian'
p2421
I14
sS'utaby'
p2422
I2
sS'bubble'
p2423
I168
sS'cials'
p2424
I4
sS'media'
p2425
I69
sS'tycoon'
p2426
I6
sS'complete'
p2427
I27
sS'enough'
p2428
I43
sS'dieldrin'
p2429
I4
sS'baronial'
p2430
I40
sS'pleased'
p2431
I15
sS'leblon'
p2432
I35
sS'24344'
p2433
I36
sS'indicators'
p2434
I124
sS'reformolar'
p2435
I20
sS'mich'
p2436
I16
sS'breadboard'
p2437
I16
sS'total_of_word'
p2438
I533353
sS'promote'
p2439
I19
sS'downstairs'
p2440
I22
sS'hottest'
p2441
I14
sS'buying'
p2442
I3
sS'faster'
p2443
I13
sS'allas'
p2444
I16
sS'hire'
p2445
I10
sS'october'
p2446
I20
sS'illustrator'
p2447
I31
sS'improved'
p2448
I1
sS'embedded'
p2449
I8
sS'0908'
p2450
I33
sS'lorelei'
p2451
I10
sS'foorever'
p2452
I17
sS'lawfully'
p2453
I15
sS'cool'
p2454
I18
sS'fbgo'
p2455
I117
sS'finial'
p2456
I9
sS'kwbt'
p2457
I2
sS'sadness'
p2458
I8
sS'562339324'
p2459
I8
sS'dirty'
p2460
I186
sS'todavia'
p2461
I125
sS'toner'
p2462
I234
sS'manuel'
p2463
I27
sS'trading'
p2464
I390
sS'hywwzzlzd'
p2465
I8
sS'builders'
p2466
I4
sS'minded'
p2467
I8
sS'simplicial'
p2468
I10
sS'yourr'
p2469
I9
sS'gone'
p2470
I41
sS'laugh'
p2471
I12
sS'required'
p2472
I48
sS'merganser'
p2473
I12
sS'ad'
p2474
I131
sS'cartie'
p2475
I14
sS'feliz'
p2476
I88
sS'medsdomain'
p2477
I14
sS'am'
p2478
I105
sS'sales'
p2479
I367
sS'ao'
p2480
I40
sS'an'
p2481
I533
sS'aq'
p2482
I12
sS'ap'
p2483
I36
sS'as'
p2484
I376
sS'ar'
p2485
I8
sS'at'
p2486
I1222
sS'file'
p2487
I73
sS'aids'
p2488
I62
sS'girlfriend'
p2489
I7
sS'ax'
p2490
I17
sS'mover'
p2491
I171
sS'hospitals'
p2492
I142
sS'illegal'
p2493
I38
sS'casualty'
p2494
I26
sS'fill'
p2495
I16
sS'fmcwjyjx'
p2496
I2
sS'again'
p2497
I134
sS'biazing'
p2498
I17
sS'rubbed'
p2499
I3
sS'vics'
p2500
I3
sS'demokritos'
p2501
I91
sS'storage'
p2502
I211
sS'green'
p2503
I22
sS'1111'
p2504
I8
sS'wddpgaycg'
p2505
I2
sS'valid'
p2506
I36
sS'5'
I876
sS'profiles'
p2507
I55
sS'uqueyvisxkhi'
p2508
I9
sS'ecagra'
p2509
I16
sS'you'
p2510
I6668
sS'optimized'
p2511
I19
sS'requested'
p2512
I199
sS'otc'
p2513
I866
sS'rutti'
p2514
I6
sS'vocabulary'
p2515
I17
sS'xanax'
p2516
I197
sS'otcbb'
p2517
I172
sS'teeth'
p2518
I21
sS'gifts'
p2519
I11
sS'supercenter'
p2520
I3
sS'hardware'
p2521
I4
sS'important'
p2522
I380
sS'peak'
p2523
I22
sS'coverage'
p2524
I22
sS'brands'
p2525
I48
sS'deregulatory'
p2526
I21
sS'stocks'
p2527
I514
sS'gino'
p2528
I8
sS'vlagr'
p2529
I25
sS'brumidi'
p2530
I66
sS'max'
p2531
I7
sS'sturbation'
p2532
I25
sS'remote'
p2533
I7
sS'xnax'
p2534
I4
sS'corel'
p2535
I77
sS'wife'
p2536
I98
sS'buvy'
p2537
I4
sS'invest'
p2538
I70
sS'tricks'
p2539
I22
sS'percentage'
p2540
I2
sS'barcelona'
p2541
I150
sS'having'
p2542
I5
sS'alprazzolam'
p2543
I36
sS'kmart'
p2544
I15
sS'u'
I402
sS'sugper'
p2545
I7
sS'hugely'
p2546
I9
sS'dyer'
p2547
I13
sS'overseas'
p2548
I6
sS'rneds'
p2549
I31
sS'starting'
p2550
I101
sS'citrate'
p2551
I1
sS'shiplap'
p2552
I25
sS'all'
p2553
I2294
sS'involutory'
p2554
I9
sS'sicilian'
p2555
I16
sS'forget'
p2556
I70
sS'chinese'
p2557
I44
sS'ali'
p2558
I19
sS'rx'
p2559
I184
sS'beware'
p2560
I8
sS'graphics'
p2561
I601
sS'alb'
p2562
I6
sS'importune'
p2563
I5
sS'month'
p2564
I42
sS'turbocharged'
p2565
I10
sS'disc'
p2566
I10
sS'smoking'
p2567
I94
sS'dish'
p2568
I11
sS'follow'
p2569
I13
sS'leadlng'
p2570
I24
sS'anvasetc'
p2571
I8
sS'handheldmed'
p2572
I67
sS'children'
p2573
I25
sS'hmmm'
p2574
I6
sS'fazla'
p2575
I13
sS'milf'
p2576
I6
sS'ty'
p2577
I9
sS'tv'
p2578
I132
sS'tt'
p2579
I3
sS'vs'
p2580
I15
sS'opportunities'
p2581
I284
sS'expounded'
p2582
I14
sS'ppatccch'
p2583
I8
sS'to'
p2584
I6234
sS'ntermin'
p2585
I13
sS'program'
p2586
I54
sS'tj'
p2587
I47
sS'present'
p2588
I15
sS'th'
p2589
I381
sS'smile'
p2590
I40
sS'hideout'
p2591
I54
sS'presentation'
p2592
I27
sS'oko'
p2593
I18
sS'ta'
p2594
I2
sS'fax'
p2595
I82
sS'roc'
p2596
I22
sS'appointment'
p2597
I132
sS'returned'
p2598
I160
sS'confidential'
p2599
I108
sS'song'
p2600
I42
sS'very'
p2601
I166
sS'allum'
p2602
I12
sS'rc'
p2603
I2
sS'multi'
p2604
I10
sS'fat'
p2605
I69
sS'mcdonough'
p2606
I22
sS'proteja'
p2607
I19
sS'rl'
p2608
I33
sS'frederic'
p2609
I30
sS'worst'
p2610
I13
sS'invent'
p2611
I13
sS'zyban'
p2612
I19
sS'fucekd'
p2613
I3
sS'sony'
p2614
I111
sS'ticket'
p2615
I10
sS'difference'
p2616
I67
sS'gow'
p2617
I15
sS'condition'
p2618
I16
sS'highways'
p2619
I8
sS'profiie'
p2620
I263
sS'clausura'
p2621
I34
sS'iimors'
p2622
I14
sS'cable'
p2623
I166
sS'lambino'
p2624
I16
sS'louis'
p2625
I18
sS'list'
p2626
I58
sS'theaters'
p2627
I8
sS'laud'
p2628
I42
sS'circuit'
p2629
I9
sS'voiume'
p2630
I141
sS'hermosa'
p2631
I15
sS'completos'
p2632
I31
sS'small'
p2633
I378
sS'lisa'
p2634
I4
sS'fashion'
p2635
I15
sS'entourage'
p2636
I115
sS'cookies'
p2637
I4
sS'quicker'
p2638
I20
sS'portable'
p2639
I213
sS'ten'
p2640
I32
sS'caue'
p2641
I10
sS'21846'
p2642
I57
sS'vioxx'
p2643
I13
sS'reins'
p2644
I25
sS'sildenafil'
p2645
I1
sS'rate'
p2646
I142
sS'titles'
p2647
I9
sS'design'
p2648
I213
sS'enhancement'
p2649
I22
sS'popularity'
p2650
I36
sS'further'
p2651
I31
sS'tors'
p2652
I13
sS'shouid'
p2653
I50
sS'investment'
p2654
I1243
sS'ribbon'
p2655
I222
sS'metallurgist'
p2656
I3
sS'conscience'
p2657
I13
sS'trick'
p2658
I18
sS'what'
p2659
I257
sS'abe'
p2660
I26
sS'consumers'
p2661
I19
sS'clock'
p2662
I28
sS'investing'
p2663
I279
sS'sun'
p2664
I46
sS'section'
p2665
I13
sS'ffff'
p2666
I33
sS'quelqu'
p2667
I11
sS'xof'
p2668
I2
sS'preformatted'
p2669
I1
sS'version'
p2670
I60
sS'sus'
p2671
I173
sS'sur'
p2672
I51
sS'0200'
p2673
I67
sS'garth'
p2674
I9
sS'lovver'
p2675
I33
sS'public'
p2676
I256
sS'everybody'
p2677
I31
sS'movement'
p2678
I24
sS'edss'
p2679
I6
sS'vali'
p2680
I5
sS'5000'
p2681
I34
sS'christian'
p2682
I173
sS'loose'
p2683
I10
sS'modify'
p2684
I1
sS'xchxa'
p2685
I33
sS'answers'
p2686
I3
sS'surfer'
p2687
I25
sS'hours'
p2688
I135
sS'tracks'
p2689
I91
sS'operating'
p2690
I39
sS'databases'
p2691
I1
sS'depend'
p2692
I27
sS'biweekly'
p2693
I17
sS'strong'
p2694
I460
sS'kara'
p2695
I19
sS'pharmcy'
p2696
I11
sS'kime'
p2697
I22
sS'nigox'
p2698
I18
sS'900'
p2699
I14
sS'mythology'
p2700
I12
sS'sender'
p2701
I348
sS'ahead'
p2702
I3
sS'fwd'
p2703
I374
sS'cock'
p2704
I14
sS'fileld'
p2705
I16
sS'reason'
p2706
I22
sS'experience'
p2707
I28
sS'schoolgirlish'
p2708
I6
sS'prior'
p2709
I28
sS'amount'
p2710
I22
sS'healthier'
p2711
I22
sS'advertising'
p2712
I100
sS'social'
p2713
I117
sS'action'
p2714
I17
sS'virilityy'
p2715
I8
sS'camcorder'
p2716
I7
sS'vic'
p2717
I3
sS'minutos'
p2718
I13
sS'via'
p2719
I112
sS'verbose'
p2720
I8
sS'family'
p2721
I147
sS'pnte'
p2722
I12
sS'rid'
p2723
I8
sS'cosmetic'
p2724
I37
sS'ask'
p2725
I21
sS'vip'
p2726
I4
sS'sfoxtkvr'
p2727
I8
sS'manage'
p2728
I11
sS'establish'
p2729
I19
sS'1903'
p2730
I16
sS'select'
p2731
I42
sS'smal'
p2732
I63
sS'855'
p2733
I24
sS'613'
p2734
I5
sS'attendance'
p2735
I14
sS'eye'
p2736
I15
sS'takes'
p2737
I33
sS'amaze'
p2738
I53
sS'codify'
p2739
I9
sS'depth'
p2740
I22
sS'finally'
p2741
I60
sS'diferente'
p2742
I6
sS'uuseful'
p2743
I18
sS'automate'
p2744
I1
sS'6'
I723
sS'torre'
p2745
I78
sS'branded'
p2746
I28
sS'printer'
p2747
I72
sS'more'
p2748
I807
sS'teen'
p2749
I110
sS'flat'
p2750
I83
sS'diamond'
p2751
I180
sS'door'
p2752
I43
sS'knows'
p2753
I42
sS'tester'
p2754
I79
sS'contrive'
p2755
I14
sS'company'
p2756
I1000
sS'medz'
p2757
I141
sS'scr'
p2758
I12
sS'contiguity'
p2759
I66
sS'246637'
p2760
I26
sS'upbring'
p2761
I33
sS'suite'
p2762
I79
sS'known'
p2763
I14
sS'vo'
p2764
I8
sS'nineteen'
p2765
I20
sS'webmaster'
p2766
I133
sS'glad'
p2767
I17
sS'exposing'
p2768
I44
sS'administrators'
p2769
I50
sS'ouur'
p2770
I17
sS'none'
p2771
I30
sS'rookverbod'
p2772
I36
sS'promo'
p2773
I16
sS'hour'
p2774
I29
sS'gqh'
p2775
I8
sS'painting'
p2776
I1
sS'37258'
p2777
I13
sS'des'
p2778
I216
sS'excelleent'
p2779
I18
sS'ers'
p2780
I22
sS'tgym'
p2781
I8
sS'mall'
p2782
I48
sS'sudden'
p2783
I77
sS'omegas'
p2784
I43
sS'resources'
p2785
I49
sS'learn'
p2786
I58
sS'male'
p2787
I33
sS'avfs'
p2788
I122
sS'reaps'
p2789
I144
sS'kucho'
p2790
I10
sS'beautiful'
p2791
I18
sS'ions'
p2792
I14
sS'743'
p2793
I12
sS'vv'
p2794
I11
sS'transportation'
p2795
I8
sS'locating'
p2796
I11
sS'share'
p2797
I289
sS'accept'
p2798
I5
sS'painfull'
p2799
I42
sS'jul'
p2800
I79
sS'solventar'
p2801
I33
sS'msjgnkrlf'
p2802
I15
sS'station'
p2803
I138
sS'wheelbase'
p2804
I30
sS'rmacy'
p2805
I73
sS'huge'
p2806
I129
sS'vereceksiniz'
p2807
I22
sS'heelp'
p2808
I22
sS'ruf'
p2809
I16
sS'staunton'
p2810
I10
sS'skyjack'
p2811
I5
sS'rather'
p2812
I6
sS'ascii'
p2813
I675
sS'breaking'
p2814
I507
sS'enlarge'
p2815
I12
sS'everyday'
p2816
I54
sS'murmur'
p2817
I13
sS'shortcuts'
p2818
I1
sS'earnings'
p2819
I163
sS'sprig'
p2820
I9
sS'centimeters'
p2821
I14
sS'specialist'
p2822
I125
sS'celebration'
p2823
I11
sS'goat'
p2824
I101
sS'epgqlahhkqqltj'
p2825
I192
sS'fr'
p2826
I101
sS'serrvice'
p2827
I17
sS'ft'
p2828
I103
sS'plans'
p2829
I30
sS'fw'
p2830
I599
sS'fy'
p2831
I14
sS'advice'
p2832
I101
sS'616'
p2833
I17
sS'treatments'
p2834
I5
sS'connectivity'
p2835
I26
sS'plane'
p2836
I59
sS'shooting'
p2837
I26
sS'blood'
p2838
I18
sS'coming'
p2839
I130
sS'fi'
p2840
I6
sS'pllls'
p2841
I4
sS'response'
p2842
I119
sS'fo'
p2843
I21
sS'a'
I4991
sS'maam'
p2844
I10
sS'workstation'
p2845
I20
sS'powerize'
p2846
I15
sS'botching'
p2847
I8
sS'festa'
p2848
I8
sS'hershey'
p2849
I12
sS'dot'
p2850
I130
sS'pho'
p2851
I2
sS'overnight'
p2852
I216
sS'volleyball'
p2853
I14
sS'shore'
p2854
I4
sS'broadcasting'
p2855
I10
sS'sharply'
p2856
I153
sS'jrgbm'
p2857
I96
sS'pleasure'
p2858
I46
sS'dream'
p2859
I12
sS'ooffr'
p2860
I18
sS'photoshop'
p2861
I74
sS'1300'
p2862
I4
sS'help'
p2863
I351
sS'uncensored'
p2864
I2
sS'oh'
p2865
I30
sS'empilhadeira'
p2866
I78
sS'taxonomy'
p2867
I10
sS'ciallis'
p2868
I5
sS'bkst'
p2869
I3
sS'major'
p2870
I120
sS'smallcaps'
p2871
I144
sS'asess'
p2872
I16
sS'paper'
p2873
I56
sS'through'
p2874
I28
sS'499'
p2875
I26
sS'filters'
p2876
I2
sS'608324'
p2877
I8
sS'itt'
p2878
I18
sS'its'
p2879
I207
sS'24'
p2880
I193
sS'25'
p2881
I652
sS'style'
p2882
I14
sS'27'
p2883
I19
sS'20'
p2884
I375
sS'21'
p2885
I328
sS'22'
p2886
I122
sS'23'
p2887
I250
sS'continued'
p2888
I113
sS'28'
p2889
I40
sS'29'
p2890
I174
sS'coarsen'
p2891
I26
sS'absence'
p2892
I6
sS'pci'
p2893
I96
sS'systems'
p2894
I40
sS'hghl'
p2895
I22
sS'selection'
p2896
I61
sS'nausea'
p2897
I16
sS'bereft'
p2898
I4
sS'unfeigned'
p2899
I12
sS'ally'
p2900
I14
sS'yh'
p2901
I11
sS'618'
p2902
I4
sS'good'
p2903
I326
sS'somebody'
p2904
I8
sS'yo'
p2905
I16
sS'seeking'
p2906
I127
sS'food'
p2907
I6
sS'propose'
p2908
I8
sS'unreal'
p2909
I26
sS'ye'
p2910
I4
sS'yd'
p2911
I50
sS'anticipated'
p2912
I6
sS'peeing'
p2913
I30
sS'oke'
p2914
I3
sS'wise'
p2915
I19
sS'hundred'
p2916
I16
sS'accumulate'
p2917
I15
sS'yp'
p2918
I8
sS'yr'
p2919
I84
sS'odin'
p2920
I3
sS'istore'
p2921
I146
sS'bigger'
p2922
I52
sS'instructions'
p2923
I21
sS'dowlnoadable'
p2924
I26
sS'easily'
p2925
I52
sS'erection'
p2926
I8
sS'rxdrugs'
p2927
I54
sS'always'
p2928
I31
sS'settings'
p2929
I1
sS'labeling'
p2930
I82
sS'jaime'
p2931
I5
sS'spy'
p2932
I14
sS'micro'
p2933
I242
sS'remortgage'
p2934
I14
sS'die'
p2935
I3
sS'found'
p2936
I72
sS'mouse'
p2937
I84
sS'alaina'
p2938
I6
sS'sopftware'
p2939
I38
sS'exquisite'
p2940
I47
sS'cep'
p2941
I13
sS'sterling'
p2942
I324
sS'brunette'
p2943
I9
sS'transform'
p2944
I1
sS'weight'
p2945
I152
sS'catalogues'
p2946
I358
sS'house'
p2947
I37
sS'energy'
p2948
I358
sS'hard'
p2949
I103
sS'reduce'
p2950
I59
sS'idea'
p2951
I416
sS'scriptions'
p2952
I1
sS'democrat'
p2953
I8
sS'neva'
p2954
I8
sS'nourishing'
p2955
I11
sS'9595'
p2956
I30
sS'http'
p2957
I87
sS'brokers'
p2958
I25
sS'beyond'
p2959
I4
sS'todo'
p2960
I6
sS'insurance'
p2961
I161
sS'really'
p2962
I77
sS'deals'
p2963
I103
sS'offrr'
p2964
I96
sS'superssale'
p2965
I23
sS'funding'
p2966
I33
sS'ize'
p2967
I14
sS'solved'
p2968
I17
sS'partners'
p2969
I18
sS'marcil'
p2970
I19
sS'since'
p2971
I9
sS'load'
p2972
I25
sS'phc'
p2973
I13
sS'acting'
p2974
I15
sS'health'
p2975
I805
sS'cartiers'
p2976
I31
sS'7'
I915
sS'stockckck'
p2977
I26
sS'print'
p2978
I68
sS'dysfunction'
p2979
I31
sS'issue'
p2980
I248
sS'pping'
p2981
I5
sS'discreetly'
p2982
I12
sS'navidad'
p2983
I88
sS'977'
p2984
I12
sS'184'
p2985
I33
sS'reporting'
p2986
I8
sS'earns'
p2987
I153
sS'norwich'
p2988
I42
sS'chuzzle'
p2989
I7
sS'friday'
p2990
I124
sS'story'
p2991
I10
sS'refi'
p2992
I21
sS'giveaway'
p2993
I26
sS'members'
p2994
I19
sS'imagine'
p2995
I229
sS'put'
p2996
I50
sS'teach'
p2997
I11
sS'oxxxyyconnntin'
p2998
I4
sS'owners'
p2999
I7
sS'benefits'
p3000
I57
sS'thread'
p3001
I136
sS'launch'
p3002
I2
sS'ccok'
p3003
I6
sS'hoppers'
p3004
I23
sS'graphic'
p3005
I64
sS'wondder'
p3006
I19
sS'netnoteinc'
p3007
I27
sS'american'
p3008
I90
sS'relativistically'
p3009
I10
sS'w'
I400
sS'bumper'
p3010
I14
sS'extender'
p3011
I40
sS'dine'
p3012
I7
sS'dont'
p3013
I92
sS'21231'
p3014
I24
sS'feel'
p3015
I136
sS'girls'
p3016
I159
sS'jabbed'
p3017
I4
sS'beer'
p3018
I4
sS'number'
p3019
I60
sS'slze'
p3020
I24
sS'mdedicationns'
p3021
I5
sS'amazing'
p3022
I44
sS'brave'
p3023
I14
sS'done'
p3024
I26
sS'guar'
p3025
I7
sS'amlsot'
p3026
I14
sS'climbing'
p3027
I28
sS'stteel'
p3028
I17
sS'wager'
p3029
I2
sS'miss'
p3030
I94
sS'anotther'
p3031
I17
sS'abrogated'
p3032
I10
sS'vallum'
p3033
I59
sS'koi'
p3034
I208
sS'passes'
p3035
I23
sS'horse'
p3036
I23
sS'fuller'
p3037
I21
sS'guaranteeing'
p3038
I4
sS'script'
p3039
I14
sS'leading'
p3040
I34
sS'smoothes'
p3041
I9
sS'bay'
p3042
I18
sS'00971'
p3043
I10
sS'chheep'
p3044
I18
sS'consumption'
p3045
I20
sS'zdrive'
p3046
I86
sS'dfo'
p3047
I15
sS'wonderful'
p3048
I100
sS'darvon'
p3049
I4
sS'187'
p3050
I92
sS'passed'
p3051
I26
sS'ze'
p3052
I12
sS'show'
p3053
I5
sS'rates'
p3054
I208
sS'oscilloscopes'
p3055
I146
sS'piedmont'
p3056
I2
sS'bechtel'
p3057
I16
sS'listed'
p3058
I34
sS'muscles'
p3059
I4
sS'feels'
p3060
I17
sS'rjmfswksttjn'
p3061
I9
sS'para'
p3062
I414
sS'johnson'
p3063
I10
sS'helpful'
p3064
I38
sS'lnjoq'
p3065
I19
sS'immediate'
p3066
I107
sS'zmsx'
p3067
I46
sS'part'
p3068
I133
sS'cartridges'
p3069
I394
sS'onlly'
p3070
I5
sS'doctors'
p3071
I250
sS'ankara'
p3072
I2
sS'discounted'
p3073
I7
sS'miracle'
p3074
I15
sS'nce'
p3075
I10
sS'oscillate'
p3076
I10
sS'king'
p3077
I10
sS'kind'
p3078
I53
sS'b'
I310
sS'kindly'
p3079
I78
sS'antil'
p3080
I14
sS'double'
p3081
I22
sS'rabais'
p3082
I27
sS'sto'
p3083
I418
sS'dispensed'
p3084
I5
sS'866'
p3085
I5
sS'youth'
p3086
I14
sS'jkoutsi'
p3087
I11
sS'game'
p3088
I24
sS'marriage'
p3089
I67
sS'store'
p3090
I88
sS'str'
p3091
I2
sS'aime'
p3092
I11
sS'samiel'
p3093
I46
sS'scanners'
p3094
I47
sS'dana'
p3095
I22
sS'charlotte'
p3096
I9
sS'92'
p3097
I1
sS'83'
p3098
I8
sS'outstanding'
p3099
I71
sS'coolant'
p3100
I30
sS'suspicious'
p3101
I40
sS'sharess'
p3102
I124
sS'decadent'
p3103
I5
sS'customized'
p3104
I3
sS'5214'
p3105
I25
sS'selling'
p3106
I155
sS'plnnacle'
p3107
I16
sS'conjugate'
p3108
I2
sS'cumbersome'
p3109
I42
sS'aged'
p3110
I3
sS'orderr'
p3111
I5
sS'rugs'
p3112
I14
sS'karl'
p3113
I9
sS'sell'
p3114
I136
sS'lie'
p3115
I6
sS'wilson'
p3116
I48
sS'adrift'
p3117
I9
sS'relationship'
p3118
I134
sS'drvgs'
p3119
I21
sS'shelby'
p3120
I9
sS'telefonicos'
p3121
I6
sS'doberman'
p3122
I42
sS'lij'
p3123
I6
sS'client'
p3124
I2
sS'efi'
p3125
I17
sS'efj'
p3126
I9
sS'internal'
p3127
I70
sS'sigletos'
p3128
I4
sS'build'
p3129
I48
sS'hgh'
p3130
I63
sS'lis'
p3131
I59
sS'cks'
p3132
I55
sS'contractual'
p3133
I12
sS'youre'
p3134
I14
sS'dernier'
p3135
I99
sS'mmedz'
p3136
I17
sS'play'
p3137
I304
sS'vnd'
p3138
I3
sS'sucklng'
p3139
I3
sS'64'
p3140
I21
sS'quote'
p3141
I66
sS'qbbcpryhrv'
p3142
I42
sS'reach'
p3143
I46
sS'purchasers'
p3144
I4
sS'seasond'
p3145
I6
sS'steam'
p3146
I93
sS'77'
p3147
I15
sS'most'
p3148
I45
sS'75'
p3149
I132
sS'73'
p3150
I28
sS'72'
p3151
I100
sS'70'
p3152
I258
sS'services'
p3153
I149
sS'barbarism'
p3154
I14
sS'51290665'
p3155
I10
sS'approved'
p3156
I297
sS'79'
p3157
I55
sS'78'
p3158
I99
sS'salary'
p3159
I14
sS'0085201238'
p3160
I12
sS'accumuiate'
p3161
I26
sS'tetm'
p3162
I2
sS'omaha'
p3163
I8
sS'abazis'
p3164
I49
sS'seize'
p3165
I12
sS'yhvqbvdboevkcd'
p3166
I14
sS'pricest'
p3167
I4
sS'ki'
p3168
I7
sS'sometimes'
p3169
I23
sS'astounding'
p3170
I14
sS'drawing'
p3171
I1
sS'traditional'
p3172
I25
sS'ext'
p3173
I81
sS'ltci'
p3174
I39
sS'exp'
p3175
I2
sS'pharmawj'
p3176
I3
sS'congratualtions'
p3177
I36
sS'latest'
p3178
I52
sS'microsoft'
p3179
I187
sS'868'
p3180
I1
sS'sector'
p3181
I171
sS'lifeguard'
p3182
I12
sS'programming'
p3183
I3
sS'gold'
p3184
I9
sS'summer'
p3185
I34
sS'okmydykwvnft'
p3186
I10
sS'juliana'
p3187
I64
sS'colis'
p3188
I19
sS'gwpfx'
p3189
I12
sS'bookings'
p3190
I14
sS'indicates'
p3191
I24
sS'businesses'
p3192
I1
sS'cds'
p3193
I185
sS'dutchmen'
p3194
I22
sS'font'
p3195
I44
sS'fine'
p3196
I36
sS'find'
p3197
I216
sS'impact'
p3198
I152
sS'cell'
p3199
I90
sS'sockeye'
p3200
I12
sS'nervous'
p3201
I2
sS'ies'
p3202
I15
sS'hope'
p3203
I269
sS'minus'
p3204
I10
sS'striptease'
p3205
I2
sS'bfl'
p3206
I9
sS'beat'
p3207
I4
sS'failed'
p3208
I341
sS'viagra'
p3209
I538
sS'quer'
p3210
I6
sS'cassette'
p3211
I81
sS'pretty'
p3212
I14
sS'equity'
p3213
I688
sS'8'
I662
sS'circle'
p3214
I7
sS'correction'
p3215
I3
sS'pharmakp'
p3216
I3
sS'giants'
p3217
I100
sS'his'
p3218
I613
sS'hit'
p3219
I109
sS'gains'
p3220
I287
sS'downpour'
p3221
I21
sS'waterproof'
p3222
I26
sS'tommorow'
p3223
I41
sS'custodian'
p3224
I16
sS'connections'
p3225
I9
sS'express'
p3226
I68
sS'levltrra'
p3227
I51
sS'cheaper'
p3228
I7
sS'comercial'
p3229
I61
sS'avarice'
p3230
I16
sS'viagrra'
p3231
I37
sS'breast'
p3232
I3
sS'international'
p3233
I175
sS'deaden'
p3234
I25
sS'banner'
p3235
I18
sS'him'
p3236
I140
sS'quizzed'
p3237
I10
sS'huntsville'
p3238
I9
sS'enemy'
p3239
I7
sS'ceviri'
p3240
I50
sS'probblem'
p3241
I17
sS'crt'
p3242
I157
sS'sources'
p3243
I5
sS'vings'
p3244
I18
sS'trudy'
p3245
I13
sS'medicines'
p3246
I68
sS'cry'
p3247
I47
sS'batteries'
p3248
I68
sS'remove'
p3249
I40
sS'banking'
p3250
I78
sS'loraazepam'
p3251
I36
sS'fagott'
p3252
I4
sS'neeed'
p3253
I50
sS'activity'
p3254
I96
sS'x'
I541
sS'lijst'
p3255
I36
sS'prirodu'
p3256
I26
sS'restaurants'
p3257
I7
sS'ialis'
p3258
I6
sS'nas'
p3259
I65
sS'seu'
p3260
I8
sS'wedelmusic'
p3261
I124
sS'art'
p3262
I5
sS'sep'
p3263
I15
sS'630995'
p3264
I10
sS'312'
p3265
I36
sS'sex'
p3266
I225
sS'signups'
p3267
I57
sS'tip'
p3268
I272
sS'see'
p3269
I240
sS'defense'
p3270
I40
sS'dumb'
p3271
I3
sS'are'
p3272
I1810
sS'lisbon'
p3273
I3
sS'medocations'
p3274
I8
sS'slam'
p3275
I89
sS'personals'
p3276
I30
sS'declined'
p3277
I13
sS'aro'
p3278
I34
sS'spermatazoa'
p3279
I11
sS'zko'
p3280
I32
sS'revolution'
p3281
I7
sS'bruceg'
p3282
I35
sS'expert'
p3283
I6
sS'matter'
p3284
I8
sS'pictures'
p3285
I173
sS'wow'
p3286
I58
sS'currently'
p3287
I6
sS'please'
p3288
I1276
sS'aviary'
p3289
I21
sS'wor'
p3290
I14
sS'edallls'
p3291
I6
sS'engel'
p3292
I12
sS'won'
p3293
I597
sS'various'
p3294
I71
sS'rite'
p3295
I6
sS'wifes'
p3296
I2
sS'conditions'
p3297
I67
sS'creative'
p3298
I58
sS'ndows'
p3299
I25
sS'ings'
p3300
I17
sS'available'
p3301
I1156
sS'byrdshot'
p3302
I12
sS'ortaksat'
p3303
I65
sS'bettor'
p3304
I14
sS'announcement'
p3305
I22
sS'targeted'
p3306
I68
sS'sold'
p3307
I22
sS'attention'
p3308
I158
sS'6674'
p3309
I27
sS'unbeatable'
p3310
I33
sS'succeed'
p3311
I23
sS'pepsi'
p3312
I14
sS'condoned'
p3313
I14
sS'surfbuddies'
p3314
I10
sS'understanding'
p3315
I4
sS'tion'
p3316
I12
sS'both'
p3317
I42
sS'c'
I487
sS'last'
p3318
I257
sS'reverse'
p3319
I63
sS'mega'
p3320
I17
sS'technica'
p3321
I66
sS'secrets'
p3322
I184
sS'annual'
p3323
I9
sS'foreign'
p3324
I35
sS'sensitive'
p3325
I17
sS'connection'
p3326
I19
sS'unthinking'
p3327
I3
sS'thisdgsrw'
p3328
I27
sS'timebestsoftwareforyou'
p3329
I19
sS'bridgette'
p3330
I22
sS'baseball'
p3331
I10
sS'superfast'
p3332
I4
sS'rollers'
p3333
I26
sS'boeotia'
p3334
I42
sS'upgraded'
p3335
I18
sS'yukos'
p3336
I37
sS'likee'
p3337
I17
sS'ydx'
p3338
I12
sS'luxurious'
p3339
I14
sS'jeff'
p3340
I9
sS'simple'
p3341
I195
sS'sweet'
p3342
I23
sS'loan'
p3343
I128
sS'evaluate'
p3344
I16
sS'community'
p3345
I221
sS'megapixel'
p3346
I4
sS'key'
p3347
I211
sS'dealon'
p3348
I11
sS'simply'
p3349
I5
sS'upgrades'
p3350
I4
sS'james'
p3351
I38
sS'mission'
p3352
I7
sS'expensive'
p3353
I14
sS'pr'
p3354
I132
sS'gdvi'
p3355
I470
sS'pw'
p3356
I16
sS'pt'
p3357
I3
sS'pu'
p3358
I17
sS'monthly'
p3359
I238
sS'px'
p3360
I40
sS'gals'
p3361
I11
sS'satire'
p3362
I10
sS'due'
p3363
I11
sS'destructor'
p3364
I25
sS'resellers'
p3365
I4
sS'pc'
p3366
I223
sS'reduction'
p3367
I83
sS'options'
p3368
I16
sS'sooooome'
p3369
I22
sS'pg'
p3370
I11
sS'xan'
p3371
I25
sS'pe'
p3372
I14
sS'guitarra'
p3373
I9
sS'ph'
p3374
I48
sS'softwares'
p3375
I12
sS'meeting'
p3376
I243
sS'whoa'
p3377
I10
sS'pm'
p3378
I22
sS'firm'
p3379
I18
sS'pharamcy'
p3380
I16
sS'generating'
p3381
I17
sS'ram'
p3382
I101
sS'flight'
p3383
I7
sS'gay'
p3384
I16
sS'boy'
p3385
I30
sS'antena'
p3386
I8
sS'transferring'
p3387
I6
sS'gas'
p3388
I12
sS'39'
p3389
I174
sS'priced'
p3390
I40
sS'fund'
p3391
I54
sS'gam'
p3392
I20
sS'cogra'
p3393
I12
sS'katherine'
p3394
I21
sS'representative'
p3395
I45
sS'testers'
p3396
I1
sS'demand'
p3397
I113
sS'prices'
p3398
I468
sS'weihnachten'
p3399
I88
sS'ming'
p3400
I41
sS'poised'
p3401
I138
sS'highest'
p3402
I302
sS'piay'
p3403
I66
sS'utmost'
p3404
I136
sS'look'
p3405
I246
sS'raw'
p3406
I1
sS'coventry'
p3407
I10
sS'judicial'
p3408
I36
sS'reliable'
p3409
I15
sS'bill'
p3410
I117
sS'budget'
p3411
I23
sS'mlm'
p3412
I95
sS'abierta'
p3413
I31
sS'while'
p3414
I106
sS'adolescent'
p3415
I6
sS'match'
p3416
I141
sS'error'
p3417
I31
sS'khumalo'
p3418
I25
sS'20806'
p3419
I14
sS'0300'
p3420
I7
sS'sma'
p3421
I171
sS'guide'
p3422
I43
sS'pack'
p3423
I44
sS'cuumm'
p3424
I7
sS'casino'
p3425
I38
sS'portugal'
p3426
I3
sS'century'
p3427
I96
sS'cents'
p3428
I40
sS'moti'
p3429
I66
sS'heisse'
p3430
I15
sS'belmont'
p3431
I9
sS'decoration'
p3432
I17
sS'rio'
p3433
I10
sS'hydrocodone'
p3434
I10
sS'analogue'
p3435
I118
sS'triple'
p3436
I22
sS'ready'
p3437
I246
sS'aspects'
p3438
I8
sS'nuthing'
p3439
I5
sS'34'
p3440
I135
sS'engt'
p3441
I8
sS'ric'
p3442
I6
sS'cavernous'
p3443
I26
sS'funny'
p3444
I6
sS'saling'
p3445
I34
sS'baseline'
p3446
I21
sS'anymore'
p3447
I44
sS'879'
p3448
I12
sS'spock'
p3449
I25
sS'loonlast'
p3450
I36
sS'orders'
p3451
I17
sS'fountain'
p3452
I9
sS'ama'
p3453
I37
sS'malboro'
p3454
I12
sS'nnpc'
p3455
I25
sS'pharmac'
p3456
I4
sS'grand'
p3457
I89
sS'9'
I321
sS'survey'
p3458
I18
sS'cumming'
p3459
I3
sS'doubleday'
p3460
I18
sS'higher'
p3461
I246
sS'amereecan'
p3462
I23
sS'fyi'
p3463
I20
sS'bonus'
p3464
I57
sS'camera'
p3465
I58
sS'gallery'
p3466
I8
sS'overweight'
p3467
I16
sS'zwarte'
p3468
I36
sS'alert'
p3469
I898
sS'moment'
p3470
I27
sS'000'
p3471
I896
sS'zits'
p3472
I7
sS'humanoids'
p3473
I146
sS'envelops'
p3474
I12
sS'profissional'
p3475
I135
sS'vallium'
p3476
I15
sS'arturo'
p3477
I43
sS'entra'
p3478
I3
sS'lower'
p3479
I29
sS'doreen'
p3480
I25
sS'paydos'
p3481
I13
sS'gigavolt'
p3482
I8
sS'mlle'
p3483
I48
sS'database'
p3484
I63
sS'rules'
p3485
I1
sS'makes'
p3486
I89
sS'cmaln'
p3487
I4
sS'averatec'
p3488
I101
sS'nola'
p3489
I20
sS'center'
p3490
I34
sS'analysis'
p3491
I109
sS'edgy'
p3492
I10
sS'body'
p3493
I46
sS'nveer'
p3494
I3
sS'selma'
p3495
I12
sS'crispin'
p3496
I21
sS'y'
I261
sS'traffic'
p3497
I10
sS'clearance'
p3498
I266
sS'isrntv'
p3499
I117
sS'spend'
p3500
I43
sS'prevention'
p3501
I7
sS'ldb'
p3502
I3
sS'positioned'
p3503
I140
sS'pussy'
p3504
I2
sS'vindictive'
p3505
I5
sS'judgments'
p3506
I25
sS'from'
p3507
I2039
sS'ceo'
p3508
I14
sS'allium'
p3509
I30
sS'mol'
p3510
I14
sS'spamassassin'
p3511
I12
sS'2968'
p3512
I26
sS'iers'
p3513
I22
sS'9018232237'
p3514
I4
sS'umbra'
p3515
I21
sS'questions'
p3516
I3
sS'using'
p3517
I48
sS'fbw'
p3518
I73
sS'alternative'
p3519
I234
sS'jylra'
p3520
I107
sS'wearable'
p3521
I2
sS'cocks'
p3522
I4
sS'freemasons'
p3523
I14
sS'move'
p3524
I207
sS'vesicopubic'
p3525
I7
sS'emerging'
p3526
I108
sS'ravine'
p3527
I10
sS'helping'
p3528
I6
sS'encrypt'
p3529
I1
sS'also'
p3530
I15
sS'costass'
p3531
I14
sS'danger'
p3532
I55
sS'guaranteed'
p3533
I322
sS'fiscalizadoras'
p3534
I33
sS'viiiagraa'
p3535
I20
sS'felicitaci'
p3536
I2
sS'signals'
p3537
I98
sS'source'
p3538
I110
sS'80782930'
p3539
I15
sS'parents'
p3540
I6
sS'bravery'
p3541
I14
sS'crying'
p3542
I13
sS'ztvwo'
p3543
I26
sS'snap'
p3544
I15
sS'cum'
p3545
I70
sS'chaparral'
p3546
I26
sS'nasa'
p3547
I144
sS'ashur'
p3548
I6
sS'bio'
p3549
I2
sS'customers'
p3550
I177
sS'wil'
p3551
I59
sS'ight'
p3552
I13
sS'demands'
p3553
I15
sS'big'
p3554
I386
sS'ambien'
p3555
I27
sS'advocate'
p3556
I9
sS'unlimited'
p3557
I59
sS'folk'
p3558
I5
sS'wives'
p3559
I22
sS'matters'
p3560
I14
sS'suffering'
p3561
I37
sS'alias'
p3562
I27
sS'chopard'
p3563
I16
sS'crisp'
p3564
I57
sS'bit'
p3565
I13
sS'pressly'
p3566
I5
sS'formal'
p3567
I9
sS'outright'
p3568
I6
sS'd'
I734
sS'submission'
p3569
I163
sS'eew'
p3570
I84
sS'sizes'
p3571
I1
sS'toyota'
p3572
I21
sS'collect'
p3573
I20
sS'zoloft'
p3574
I12
sS'een'
p3575
I3
sS'julho'
p3576
I21
sS'popular'
p3577
I124
sS'healthy'
p3578
I82
sS'two'
p3579
I117
sS'pertaining'
p3580
I9
sS'zmocu'
p3581
I33
sS'course'
p3582
I20
sS'soma'
p3583
I93
sS'fake'
p3584
I5
sS'some'
p3585
I64
sS'back'
p3586
I262
sS'bounce'
p3587
I207
sS'workss'
p3588
I18
sS'urgent'
p3589
I907
sS'trends'
p3590
I33
sS'fviagr'
p3591
I18
sS'pricing'
p3592
I52
sS'ornaments'
p3593
I10
sS'paln'
p3594
I22
sS'curious'
p3595
I20
sS'newsletter'
p3596
I1059
sS'amicable'
p3597
I14
sS'irresistible'
p3598
I57
sS'lars'
p3599
I92
sS'delivered'
p3600
I101
sS'medg'
p3601
I50
sS'tools'
p3602
I1
sS'decision'
p3603
I34
sS'medi'
p3604
I3
sS'scalps'
p3605
I22
sS'benefit'
p3606
I80
sS'balmy'
p3607
I9
sS'prop'
p3608
I6
sS'meds'
p3609
I1161
sS'smail'
p3610
I147
sS'1252'
p3611
I53
sS'eliminate'
p3612
I7
sS'mkxcyvozibdj'
p3613
I4
sS'complimentar'
p3614
I5
sS'pphentermine'
p3615
I21
sS'xana'
p3616
I60
sS'dating'
p3617
I50
sS'buspar'
p3618
I4
sS'bd'
p3619
I12
sS'be'
p3620
I1478
sS'erxemte'
p3621
I3
sS'run'
p3622
I482
sS'foml'
p3623
I50
sS'usavity'
p3624
I11
sS'word'
p3625
I204
sS'bn'
p3626
I17
sS'lose'
p3627
I361
sS'continuing'
p3628
I61
sS'confidence'
p3629
I40
sS'forming'
p3630
I20
sS'lasts'
p3631
I10
sS'bu'
p3632
I20
sS'step'
p3633
I80
sS'soletn'
p3634
I7
sS'oem'
p3635
I719
sS'become'
p3636
I162
sS'blomqvist'
p3637
I10
sS'feb'
p3638
I36
sS'taboo'
p3639
I8
sS'by'
p3640
I663
sS'che'
p3641
I36
sS'faith'
p3642
I197
sS'subprime'
p3643
I21
sS'zip'
p3644
I15
sS'anything'
p3645
I77
sS'ciais'
p3646
I5
sS'yearold'
p3647
I4
sS'madde'
p3648
I17
sS'graduation'
p3649
I7
sS'page'
p3650
I144
sS'rube'
p3651
I26
sS'range'
p3652
I51
sS'isleyc'
p3653
I8
sS'extensions'
p3654
I19
sS'goode'
p3655
I61
sS'cuold'
p3656
I7
sS'justt'
p3657
I17
sS'messaging'
p3658
I1
sS'92237'
p3659
I8
sS'complimentary'
p3660
I58
sS'wanna'
p3661
I148
sS'taablets'
p3662
I75
sS'plan'
p3663
I41
sS'inte'
p3664
I10
sS'safeharbor'
p3665
I31
sS'86'
p3666
I13
sS'into'
p3667
I146
sS'within'
p3668
I17
sS'nneed'
p3669
I17
sS'servers'
p3670
I1
sS'vaal'
p3671
I18
sS'nothing'
p3672
I57
sS'reciept'
p3673
I17
sS'master'
p3674
I27
sS'trry'
p3675
I17
sS'returning'
p3676
I305
sS'factor'
p3677
I12
sS'pennysto'
p3678
I110
sS'suntrust'
p3679
I2
sS'eneric'
p3680
I23
sS'katie'
p3681
I13
sS'sunglasses'
p3682
I19
sS'tenth'
p3683
I22
sS'xph'
p3684
I101
sS'mbna'
p3685
I49
sS'renewal'
p3686
I44
sS'spending'
p3687
I19
sS'fluctuate'
p3688
I16
sS'coddin'
p3689
I18
sS'question'
p3690
I385
sS'long'
p3691
I88
sS'custom'
p3692
I95
sS'pharmaceuticals'
p3693
I92
sS'dribbled'
p3694
I26
sS'consultation'
p3695
I40
sS'downloadable'
p3696
I6
sS'caalls'
p3697
I36
sS'aawesome'
p3698
I9
sS'heritage'
p3699
I27
sS'forward'
p3700
I97
sS'conrail'
p3701
I5
sS'files'
p3702
I1
sS'mul'
p3703
I22
sS'sizzle'
p3704
I97
sS'invite'
p3705
I9
sS'inches'
p3706
I63
sS'tutored'
p3707
I18
sS'memory'
p3708
I3
sS'auric'
p3709
I10
sS'supersavings'
p3710
I10
sS'boys'
p3711
I31
sS'profissionais'
p3712
I135
sS'link'
p3713
I102
sS'library'
p3714
I12
sS'noscv'
p3715
I7
sS'hopes'
p3716
I10
sS'somma'
p3717
I12
sS'line'
p3718
I118
sS'immortal'
p3719
I14
sS'nv'
p3720
I18
sS'raising'
p3721
I20
sS'dealers'
p3722
I153
sS'fda'
p3723
I79
sS'entradas'
p3724
I3
sS'cia'
p3725
I58
sS'uy'
p3726
I7
sS'refinancing'
p3727
I1
sS'intuitive'
p3728
I1
sS'edumm'
p3729
I6
sS'utk'
p3730
I12
sS'bulk'
p3731
I18
sS'wndows'
p3732
I87
sS'uq'
p3733
I26
sS'up'
p3734
I976
sS'us'
p3735
I957
sS'um'
p3736
I62
sS'windows'
p3737
I301
sS'un'
p3738
I11
sS'today'
p3739
I476
sS'mature'
p3740
I8
sS'fice'
p3741
I2
sS'z'
I35
sS'vibe'
p3742
I21
sS'clear'
p3743
I81
sS'7283'
p3744
I22
sS'rease'
p3745
I8
sS'breed'
p3746
I144
sS'dystrophy'
p3747
I84
sS'forest'
p3748
I6
sS'choosing'
p3749
I5
sS'inkjet'
p3750
I102
sS'defined'
p3751
I6
sS'reallllly'
p3752
I2
sS'003399'
p3753
I15
sS'lyz'
p3754
I2
sS'lovely'
p3755
I14
sS'built'
p3756
I2
sS'engineering'
p3757
I22
sS'warning'
p3758
I114
sS'bhgv'
p3759
I6
sS'chat'
p3760
I6
sS'babe'
p3761
I41
sS'3735'
p3762
I4
sS'markdowns'
p3763
I34
sS'whirligig'
p3764
I10
sS'defines'
p3765
I65
sS'nab'
p3766
I10
sS'waiit'
p3767
I10
sS'valllum'
p3768
I15
sS'crip'
p3769
I11
sS'zui'
p3770
I4
sS'unreserved'
p3771
I52
sS'mystery'
p3772
I38
sS'cohesive'
p3773
I9
sS'application'
p3774
I230
sS'electrical'
p3775
I36
sS'ellen'
p3776
I6
sS'nat'
p3777
I3
sS'gra'
p3778
I187
sS'department'
p3779
I74
sS'nax'
p3780
I28
sS'kamal'
p3781
I10
sS'kqo'
p3782
I13
sS'eerily'
p3783
I42
sS'nice'
p3784
I12
sS'douro'
p3785
I30
sS'draw'
p3786
I22
sS'elements'
p3787
I22
sS'clean'
p3788
I31
sS'duddy'
p3789
I7
sS'tasimaya'
p3790
I13
sS'impress'
p3791
I26
sS'opulent'
p3792
I6
sS'enterprise'
p3793
I21
sS'problems'
p3794
I94
sS'breasts'
p3795
I21
sS'pretended'
p3796
I12
sS'cranking'
p3797
I117
sS'regulations'
p3798
I10
sS'stockmarket'
p3799
I25
sS'drag'
p3800
I23
sS'cater'
p3801
I6
sS'velocity'
p3802
I7
sS'cooperate'
p3803
I256
sS'structure'
p3804
I14
sS'ago'
p3805
I5
sS'gallegos'
p3806
I7
sS'suffers'
p3807
I54
sS'e'
I942
sS'agaain'
p3808
I17
sS'updates'
p3809
I31
sS'we'
p3810
I1022
sS'dvd'
p3811
I50
sS'age'
p3812
I7
sS'gelling'
p3813
I10
sS'wellbeing'
p3814
I5
sS'bulletin'
p3815
I10
sS'2002'
p3816
I110
sS'2003'
p3817
I20
sS'2000'
p3818
I25
sS'declination'
p3819
I25
sS'2006'
p3820
I6
sS'presenting'
p3821
I24
sS'2004'
p3822
I663
sS'2005'
p3823
I342
sS'inaccuracy'
p3824
I5
sS'fresh'
p3825
I138
sS'joining'
p3826
I3
sS'misrepresentation'
p3827
I13
sS'hello'
p3828
I226
sS'sora'
p3829
I30
sS'edc'
p3830
I1
sS'code'
p3831
I25
sS'gs'
p3832
I19
sS'gr'
p3833
I120
sS'gp'
p3834
I4
sS'bvy'
p3835
I22
sS'results'
p3836
I213
sS'ds'
p3837
I17
sS'010'
p3838
I12
sS'baby'
p3839
I17
sS'ge'
p3840
I3
sS'proposition'
p3841
I40
sS'gb'
p3842
I360
sS'aw'
p3843
I25
sS'dainty'
p3844
I26
sS'go'
p3845
I101
sS'ass'
p3846
I50
sS'unfaithful'
p3847
I16
sS'issues'
p3848
I2
sS'phenomenon'
p3849
I144
sS'penis'
p3850
I91
sS'navide'
p3851
I2
sS'longstanding'
p3852
I6
sS'animal'
p3853
I9
sS'peanut'
p3854
I8
sS'young'
p3855
I44
sS'send'
p3856
I60
sS'nose'
p3857
I9
sS'languages'
p3858
I286
sS'breakout'
p3859
I56
sS'blaze'
p3860
I56
sS'fioric'
p3861
I6
sS'lky'
p3862
I8
sS'quarterly'
p3863
I23
sS'insbuyer'
p3864
I33
sS'maryland'
p3865
I8
sS'subscription'
p3866
I55
sS'asistance'
p3867
I52
sS'friendly'
p3868
I12
sS'sent'
p3869
I60
sS'clatter'
p3870
I13
sS'swooping'
p3871
I5
sS'confirmation'
p3872
I120
sS'anvanced'
p3873
I6
sS'garden'
p3874
I10
sS'kcc'
p3875
I170
sS'718'
p3876
I34
sS'vlc'
p3877
I11
sS'continues'
p3878
I235
sS'cctv'
p3879
I19
sS'nevv'
p3880
I24
sS'intel'
p3881
I130
sS'heard'
p3882
I33
sS'prescri'
p3883
I14
sS'ja'
p3884
I14
sS'vibrator'
p3885
I97
sS'tutu'
p3886
I10
sS'christmass'
p3887
I33
sS'wa'
p3888
I62
sS'entire'
p3889
I8
sS'magic'
p3890
I5
sS'icodin'
p3891
I12
sS'button'
p3892
I84
sS'michael'
p3893
I21
sS'eve'
p3894
I31
sS'esecure'
p3895
I12
sS'try'
p3896
I152
sS'race'
p3897
I6
sS'specal'
p3898
I21
sS'congrats'
p3899
I14
sS'trite'
p3900
I2
sS'betwixt'
p3901
I16
sS'inspection'
p3902
I26
sS'robhatah'
p3903
I146
sS'app'
p3904
I14
sS'northumberland'
p3905
I6
sS'carter'
p3906
I10
sS'599'
p3907
I1
sS'antigen'
p3908
I22
sS'participate'
p3909
I20
sS'odu'
p3910
I30
sS'zb'
p3911
I15
sS'licensed'
p3912
I16
sS'jump'
p3913
I169
sS'pres'
p3914
I14
sS'video'
p3915
I24
sS'reunion'
p3916
I24
sS'download'
p3917
I109
sS'articie'
p3918
I21
sS'zv'
p3919
I14
sS'acid'
p3920
I15
sS'spaghetti'
p3921
I26
sS'click'
p3922
I14
sS'cfp'
p3923
I124
sS'aaer'
p3924
I33
sS'reviews'
p3925
I3
sS'7377'
p3926
I67
sS'power'
p3927
I365
sS'830451'
p3928
I6
sS'giving'
p3929
I69
sS'mpegs'
p3930
I2
sS'intimate'
p3931
I5
sS'moan'
p3932
I21
sS'availability'
p3933
I3
sS'access'
p3934
I296
sS'alprazolam'
p3935
I5
sS'waiting'
p3936
I36
sS'wildest'
p3937
I16
sS'fiori'
p3938
I6
sS'emergencia'
p3939
I135
sS'proffer'
p3940
I8
sS'demolition'
p3941
I21
sS'journal'
p3942
I34
sS'8342059'
p3943
I8
sS'labyrinth'
p3944
I10
sS'pediatrics'
p3945
I50
sS'lee'
p3946
I10
sS'degree'
p3947
I47
sS'exchange'
p3948
I1
sS'alhambra'
p3949
I19
sS'delivering'
p3950
I124
sS'highly'
p3951
I14
sS'explore'
p3952
I14
sS'les'
p3953
I124
sS'let'
p3954
I123
sS'heartwarmer'
p3955
I229
sS'lev'
p3956
I12
sS'making'
p3957
I16
sS'sexy'
p3958
I25
sS'physiology'
p3959
I9
sS'extreme'
p3960
I13
sS'maven'
p3961
I68
sS'great'
p3962
I512
sS'38'
p3963
I141
sS'33'
p3964
I51
sS'32'
p3965
I10
sS'31'
p3966
I14
sS'30'
p3967
I192
sS'37'
p3968
I15
sS'36'
p3969
I32
sS'35'
p3970
I31
sS'rhombus'
p3971
I10
sS'fond'
p3972
I4
sS'joyeux'
p3973
I88
sS'sshs'
p3974
I5
sS'products'
p3975
I105
sS'646'
p3976
I8
sS'royalization'
p3977
I9
sS'opinion'
p3978
I19
sS'had'
p3979
I26
sS'rdn'
p3980
I101
sS'stephanie'
p3981
I10
sS'rdh'
p3982
I26
sS'wid'
p3983
I7
sS'addresses'
p3984
I165
sS'kudzu'
p3985
I9
sS'heart'
p3986
I107
sS'apr'
p3987
I7
sS'win'
p3988
I75
sS'ljdjifz'
p3989
I10
sS'ption'
p3990
I14
sS'private'
p3991
I102
sS'terrapin'
p3992
I71
sS'expect'
p3993
I19
sS'decrease'
p3994
I6
sS'names'
p3995
I27
sS'motor'
p3996
I11
sS'buildup'
p3997
I2
sS'apply'
p3998
I67
sS'lima'
p3999
I42
sS'enlarg'
p4000
I4
sS'gateway'
p4001
I54
sS'stukm'
p4002
I31
sS'cha'
p4003
I7
sS'use'
p4004
I192
sS'impotency'
p4005
I6
sS'lottery'
p4006
I285
sS'usb'
p4007
I443
sS'usa'
p4008
I90
sS'fea'
p4009
I23
sS'mid'
p4010
I13
sS'ministers'
p4011
I17
sS'next'
p4012
I1114
sS'few'
p4013
I6
sS'craf'
p4014
I5
sS'bastion'
p4015
I16
sS'onlinepharmacycheap'
p4016
I12
sS'timing'
p4017
I68
sS'pion'
p4018
I7
sS'enl'
p4019
I3
sS'impotence'
p4020
I53
sS'iit'
p4021
I91
sS'monga'
p4022
I47
sS'dentists'
p4023
I37
sS'dialup'
p4024
I32
sS'comparison'
p4025
I70
sS'achieve'
p4026
I55
sS'orestes'
p4027
I13
sS'local'
p4028
I11
sS'kiosk'
p4029
I11
sS'sister'
p4030
I47
sS'infection'
p4031
I3
sS'3376'
p4032
I5
sS'verdana'
p4033
I1
sS'deserve'
p4034
I14
sS'37159481'
p4035
I12
sS'carrying'
p4036
I175
sS'agent'
p4037
I100
sS'pharmaxz'
p4038
I3
sS'dicine'
p4039
I11
sS'ural'
p4040
I3
sS'harvest'
p4041
I61
sS'firewall'
p4042
I79
sS'women'
p4043
I81
sS'customer'
p4044
I138
sS'account'
p4045
I1078
sS'overstocked'
p4046
I19
sS'phot'
p4047
I16
sS'f'
I521
sS'this'
p4048
I3504
sS'alia'
p4049
I10
sS'challenge'
p4050
I256
sS'clients'
p4051
I99
sS'0800'
p4052
I48
sS'oct'
p4053
I20
sS'bring'
p4054
I8
sS'infinitesimal'
p4055
I3
sS'plnnaccle'
p4056
I6
sS'thin'
p4057
I20
sS'servants'
p4058
I6
sS'smartly'
p4059
I11
sS'meet'
p4060
I87
sS'alis'
p4061
I15
sS'jeer'
p4062
I50
sS'proof'
p4063
I23
sS'control'
p4064
I65
sS'immoderate'
p4065
I15
sS'links'
p4066
I27
sS'process'
p4067
I30
sS'lock'
p4068
I60
sS'slim'
p4069
I16
sS'promotional'
p4070
I42
sS'high'
p4071
I1059
sS'professor'
p4072
I6
sS'taf'
p4073
I9
sS'reserves'
p4074
I19
sS'tittletattle'
p4075
I7
sS'ingest'
p4076
I3
sS'tab'
p4077
I5
sS'onlin'
p4078
I10
sS'rape'
p4079
I10
sS'lamb'
p4080
I9
sS'sir'
p4081
I50
sS'warez'
p4082
I163
sS'rreally'
p4083
I17
sS'hiv'
p4084
I44
sS'club'
p4085
I21
sS'asure'
p4086
I12
sS'potohs'
p4087
I7
sS'itst'
p4088
I112
sS'verified'
p4089
I10
sS'gcm'
p4090
I2
sS'blob'
p4091
I13
sS'548837'
p4092
I12
sS'traders'
p4093
I316
sS'sometiiiiimes'
p4094
I22
sS'courtiers'
p4095
I17
sS'attachment'
p4096
I10
sS'insistent'
p4097
I4
sS'suspend'
p4098
I43
sS'sio'
p4099
I10
sS'observaciones'
p4100
I33
sS'dwl'
p4101
I96
sS'stock'
p4102
I4194
sS'profile'
p4103
I53
sS'amatuer'
p4104
I35
sS'iaagra'
p4105
I12
sS'neighbor'
p4106
I6
sS'attend'
p4107
I45
sS'rready'
p4108
I17
sS'farm'
p4109
I3
sS'stop'
p4110
I354
sS'await'
p4111
I20
sS'fucker'
p4112
I7
sS'collection'
p4113
I39
sS'perceive'
p4114
I12
sS'yotgy'
p4115
I19
sS'notebook'
p4116
I2
sS'wrist'
p4117
I16
sS'tware'
p4118
I3
sS'eosine'
p4119
I48
sS'marrow'
p4120
I4
sS'da'
p4121
I5
sS'blackfeet'
p4122
I26
sS'sie'
p4123
I7
sS'codeilne'
p4124
I18
sS'sans'
p4125
I1
sS'eeqfezd'
p4126
I17
sS'ot'
p4127
I13
sS'advocated'
p4128
I5
sS'light'
p4129
I15
sS'lines'
p4130
I1
sS'contato'
p4131
I30
sS'projectors'
p4132
I117
sS'nlarge'
p4133
I3
sS'reai'
p4134
I7
sS'agr'
p4135
I2
sS'holidays'
p4136
I14
sS'healthcare'
p4137
I6
sS'executives'
p4138
I29
sS'jolie'
p4139
I38
sS'needham'
p4140
I11
sS'animadversion'
p4141
I10
sS'indemand'
p4142
I6
sS'institutional'
p4143
I98
sS'rices'
p4144
I8
sS'softtabs'
p4145
I30
sS'doubtful'
p4146
I42
sS'sperm'
p4147
I15
sS'dv'
p4148
I6
sS'131'
p4149
I13
sS'own'
p4150
I174
sS'137'
p4151
I81
sS'looks'
p4152
I4
sS'quake'
p4153
I16
sS'cruise'
p4154
I23
sS'mentioned'
p4155
I11
sS'springshop'
p4156
I14
sS'138'
p4157
I99
sS'horny'
p4158
I34
sS'proop'
p4159
I17
sS'perfect'
p4160
I283
sS'write'
p4161
I23
sS'gunslinger'
p4162
I4
sS'le'
p4163
I121
sS'eshopkey'
p4164
I41
sS'la'
p4165
I107
sS'lo'
p4166
I146
sS'll'
p4167
I104
sS'notebooks'
p4168
I102
sS'housewife'
p4169
I47
sS'winning'
p4170
I899
sS'coupon'
p4171
I6
sS'lt'
p4172
I17
sS'winners'
p4173
I198
sS'choose'
p4174
I73
sS'tsx'
p4175
I49
sS'shy'
p4176
I3
sS'holiday'
p4177
I11
sS'listas'
p4178
I14
sS'ly'
p4179
I12
sS'dcmyplp'
p4180
I13
sS'descriptive'
p4181
I11
sS'woww'
p4182
I23
sS'auto'
p4183
I9
sS'dan'
p4184
I22
sS'creedal'
p4185
I4
sS'dat'
p4186
I70
sS'dock'
p4187
I97
sS'cutting'
p4188
I5
sS'bothering'
p4189
I6
sS'kiss'
p4190
I2
sS'hands'
p4191
I3
sS'front'
p4192
I69
sS'assets'
p4193
I11
sS'investor'
p4194
I160
sS'day'
p4195
I380
sS'pyrrhic'
p4196
I10
sS'suffe'
p4197
I17
sS'penelope'
p4198
I3
sS'wrigley'
p4199
I12
sS'presc'
p4200
I3
sS'amaziing'
p4201
I17
sS'radiant'
p4202
I26
sS'nfl'
p4203
I9
sS'finance'
p4204
I9
sS'pknns'
p4205
I3
sS'quest'
p4206
I36
sS'weather'
p4207
I12
sS'truth'
p4208
I58
sS'virulent'
p4209
I15
sS'deiiver'
p4210
I23
sS'bills'
p4211
I15
sS'tray'
p4212
I26
sS'sofftwarre'
p4213
I9
sS'Subject'
p4214
I75407
sS'millenium'
p4215
I25
sS'pimpwear'
p4216
I11
sS'oun'
p4217
I15
sS'shower'
p4218
I18
sS'doing'
p4219
I83
sS'globe'
p4220
I7
sS'shoppe'
p4221
I55
sS'aoe'
p4222
I10
sS'702'
p4223
I6
sS'consulation'
p4224
I6
sS'88'
p4225
I14
sS'89'
p4226
I100
sS'increases'
p4227
I22
sS'variety'
p4228
I7
sS'exceeded'
p4229
I33
sS'our'
p4230
I1482
sS'80'
p4231
I605
sS'81'
p4232
I35
sS'sexual'
p4233
I54
sS'87'
p4234
I30
sS'special'
p4235
I658
sS'out'
p4236
I352
sS'irritability'
p4237
I8
sS'secretly'
p4238
I36
sS'matt'
p4239
I12
sS'fre'
p4240
I21
sS'inoencnt'
p4241
I3
sS'entertainment'
p4242
I9
sS'wheresoever'
p4243
I101
sS'74436558'
p4244
I9
sS'141'
p4245
I46
sS'transcript'
p4246
I62
sS'coproduct'
p4247
I4
sS'musturbating'
p4248
I7
sS'follicle'
p4249
I16
sS'mate'
p4250
I6
sS'ren'
p4251
I19
sS'militate'
p4252
I13
sS'vinson'
p4253
I9
sS'electronics'
p4254
I2
sS'ref'
p4255
I77
sS'red'
p4256
I15
sS'ree'
p4257
I26
sS'afford'
p4258
I14
sS'cnb'
p4259
I17
sS'paramagnet'
p4260
I5
sS'wallpaper'
p4261
I3
sS'piayer'
p4262
I20
sS'prizes'
p4263
I37
sS'3723016'
p4264
I8
sS'frank'
p4265
I101
sS'ipod'
p4266
I78
sS'harriett'
p4267
I6
sS'tempo'
p4268
I2
sS'incalculable'
p4269
I8
sS'viagrma'
p4270
I7
sS'arial'
p4271
I1
sS'3150'
p4272
I101
sS'que'
p4273
I112
sS'vacations'
p4274
I1
sS'levitra'
p4275
I25
sS'usual'
p4276
I12
sS'early'
p4277
I15
sS'alchemists'
p4278
I21
sS'149'
p4279
I4
sS'craving'
p4280
I27
sS'enz'
p4281
I36
sS'errrection'
p4282
I5
sS'ezine'
p4283
I22
sS'her'
p4284
I247
sS'g'
I451
sS'could'
p4285
I317
sS'area'
p4286
I65
sS'498'
p4287
I1
sS'times'
p4288
I86
sS'ltc'
p4289
I67
sS'length'
p4290
I62
sS'osborne'
p4291
I12
sS'adrian'
p4292
I54
sS'appilcatlon'
p4293
I2
sS'crm'
p4294
I98
sS'facilitate'
p4295
I32
sS'finest'
p4296
I42
sS'approova'
p4297
I2
sS'blown'
p4298
I26
sS'ihr'
p4299
I7
sS'third'
p4300
I39
sS'powerful'
p4301
I77
sS'rippers'
p4302
I4
sS'wohre'
p4303
I3
sS'cardiac'
p4304
I22
sS'set'
p4305
I29
sS'codifying'
p4306
I18
sS'such'
p4307
I24
sS'blows'
p4308
I8
sS'oisv'
p4309
I15
sS'quality'
p4310
I585
sS'masturbat'
p4311
I9
sS'owning'
p4312
I50
sS'prank'
p4313
I2
sS'decode'
p4314
I5
sS'management'
p4315
I134
sS'ibm'
p4316
I4
sS'ordering'
p4317
I11
sS'revealed'
p4318
I127
sS'vulgar'
p4319
I17
sS'seat'
p4320
I85
sS'hilary'
p4321
I11
sS'roche'
p4322
I8
sS'their'
p4323
I478
sS'1500'
p4324
I4
sS'trending'
p4325
I10
sS'scripts'
p4326
I1
sS'termin'
p4327
I13
sS'norton'
p4328
I77
sS'perfectly'
p4329
I61
sS'sloid'
p4330
I5
sS'beard'
p4331
I4
sS'ssqqozc'
p4332
I15
sS'square'
p4333
I1
sS'academy'
p4334
I21
sS'misordering'
p4335
I2
sS'exactly'
p4336
I5
sS'xhc'
p4337
I15
sS'larger'
p4338
I150
sS'meeds'
p4339
I10
sS'suitability'
p4340
I10
sS'pneis'
p4341
I8
sS'excelled'
p4342
I321
sS'july'
p4343
I312
sS'botox'
p4344
I31
sS'haven'
p4345
I20
sS'youthh'
p4346
I17
sS'loved'
p4347
I8
sS'3881'
p4348
I5
sS'holland'
p4349
I8
sS'underpriced'
p4350
I290
sS'mbps'
p4351
I79
sS'bed'
p4352
I382
sS'penls'
p4353
I7
sS'appealing'
p4354
I16
sS'arc'
p4355
I21
sS'boyish'
p4356
I6
sS'elektronik'
p4357
I55
sS'notebookplus'
p4358
I424
sS'tag'
p4359
I6
sS'agrra'
p4360
I56
sS'creditors'
p4361
I39
sS'oncxbv'
p4362
I4
sS'joelpittet'
p4363
I10
sS'anatomy'
p4364
I42
sS'ipanema'
p4365
I35
sS'copacabana'
p4366
I35
sS'tabs'
p4367
I463
sS'partnership'
p4368
I88
sS'wakey'
p4369
I28
sS'gently'
p4370
I9
sS'layton'
p4371
I22
sS'tonight'
p4372
I54
sS'buy'
p4373
I966
sS'mary'
p4374
I42
sS'have'
p4375
I798
sS'need'
p4376
I795
sS'sky'
p4377
I59
sS'linked'
p4378
I21
sS'aluum'
p4379
I36
sS'screw'
p4380
I14
sS'rmin'
p4381
I15
sS'soak'
p4382
I34
sS'min'
p4383
I12
sS'allergies'
p4384
I6
sS'lasalle'
p4385
I72
sS'agency'
p4386
I41
sS'message'
p4387
I567
sS'si'
p4388
I12
sS'purchasing'
p4389
I26
sS'arm'
p4390
I7
sS'polarization'
p4391
I68
sS'firned'
p4392
I7
sS'viiiicodin'
p4393
I5
sS'locals'
p4394
I6
sS'which'
p4395
I32
sS'truck'
p4396
I9
sS'asshole'
p4397
I21
sS'nua'
p4398
I47
sS'sirius'
p4399
I6
sS'realarcade'
p4400
I7
sS'soar'
p4401
I93
sS'worldwide'
p4402
I93
sS'tolerancy'
p4403
I24
sS'miningnews'
p4404
I221
sS'allow'
p4405
I3
sS'combat'
p4406
I8
sS'voyage'
p4407
I22
sS'jun'
p4408
I42
sS'patchs'
p4409
I14
sS'00'
p4410
I1402
sS'pasa'
p4411
I2
sS'bounty'
p4412
I26
sS'visa'
p4413
I38
sS'eight'
p4414
I10
sS'profiier'
p4415
I28
sS'positi'
p4416
I95
sS'capsize'
p4417
I6
sS'fisted'
p4418
I5
sS'wlagra'
p4419
I15
sS'payment'
p4420
I106
sS'juega'
p4421
I7
sS'volume'
p4422
I45
sS'asalam'
p4423
I12
sS'request'
p4424
I307
sS'thanksgiving'
p4425
I31
sS'tscmiwli'
p4426
I14
sS'face'
p4427
I136
sS'talk'
p4428
I711
sS'workspace'
p4429
I2
sS'24679'
p4430
I14
sS'relievers'
p4431
I5
sS'bamako'
p4432
I21
sS'superviagra'
p4433
I14
sS'0700'
p4434
I15
sS'normally'
p4435
I15
sS'08'
p4436
I113
sS'768'
p4437
I1
sS'ho'
p4438
I6
sS'affair'
p4439
I5
sS'downline'
p4440
I4
sS'exciuslve'
p4441
I15
sS'xhzcixu'
p4442
I6
sS'answered'
p4443
I15
sS'brenda'
p4444
I10
sS'cute'
p4445
I24
sS'text'
p4446
I18
sS'tures'
p4447
I23
sS'economise'
p4448
I12
sS'retouching'
p4449
I1
sS'unbelievable'
p4450
I23
sS'profiied'
p4451
I220
sS'phsoto'
p4452
I7
sS'niet'
p4453
I36
sS'bedroom'
p4454
I19
sS'portfolio'
p4455
I146
sS'edagrra'
p4456
I6
sS'sleeps'
p4457
I8
sS'melcher'
p4458
I17
sS'one'
p4459
I599
sS'tirb'
p4460
I6
sS'envy'
p4461
I19
sS'forex'
p4462
I6
sS'based'
p4463
I13
sS'with'
p4464
I2670
sS'winner'
p4465
I158
sS'brighten'
p4466
I21
sS'should'
p4467
I421
sS'jan'
p4468
I36
sS'bernard'
p4469
I56
sS'ksg'
p4470
I8
sS'smallest'
p4471
I11
sS'tape'
p4472
I151
sS'983795'
p4473
I16
sS'lls'
p4474
I3
sS'combo'
p4475
I101
sS'fuel'
p4476
I31
sS'spice'
p4477
I3
sS'thousands'
p4478
I574
sS'calisthenic'
p4479
I9
sS'meant'
p4480
I6
sS'hassles'
p4481
I3
sS'insight'
p4482
I95
sS'drgv'
p4483
I65
sS'exceptional'
p4484
I6
sS'5146'
p4485
I10
sS'zenegra'
p4486
I11
sS'cranky'
p4487
I10
sS'venetta'
p4488
I42
sS'bear'
p4489
I42
sS'neighbour'
p4490
I3
sS'joint'
p4491
I126
sS'chhfb'
p4492
I4
sS'personnel'
p4493
I66
sS'stars'
p4494
I72
sS'aoauau'
p4495
I10
sS'aked'
p4496
I38
sS'buyer'
p4497
I8
sS'penetrate'
p4498
I18
sS'dpv'
p4499
I16
sS'24772'
p4500
I24
sS'qu'
p4501
I2
sS'overnmght'
p4502
I3
sS'claal'
p4503
I30
sS'h'
I210
sS'gorgon'
p4504
I9
sS'bloodline'
p4505
I2
sS'fixes'
p4506
I15
sS'mizl'
p4507
I10
sS'eyebrow'
p4508
I1
sS'calling'
p4509
I161
sS'deliquescent'
p4510
I15
sS'ganar'
p4511
I6
sS'stuff'
p4512
I129
sS'she'
p4513
I122
sS'wholesale'
p4514
I107
sS'itra'
p4515
I12
sS'shi'
p4516
I5
sS'grab'
p4517
I22
sS'fixed'
p4518
I77
sS'view'
p4519
I49
sS'246644'
p4520
I26
sS'knowing'
p4521
I32
sS'requirement'
p4522
I2
sS'j'
I8
sS'oreos'
p4523
I4
sS'national'
p4524
I18
sS'respect'
p4525
I3
sS'viagrla'
p4526
I7
sS'submisssive'
p4527
I5
sS'9652'
p4528
I26
sS'edition'
p4529
I23
sS'575'
p4530
I97
sS'computer'
p4531
I375
sS'scroll'
p4532
I84
sS'enhanced'
p4533
I2
sS'potable'
p4534
I8
sS'adolescentes'
p4535
I34
sS'gotten'
p4536
I5
sS'flirt'
p4537
I4
sS'hp'
p4538
I239
sS'cole'
p4539
I19
sS'stats'
p4540
I36
sS'nationwide'
p4541
I4
sS'luv'
p4542
I23
sS'cribsheet'
p4543
I89
sS'complementary'
p4544
I19
sS'dln'
p4545
I11
sS'bouncing'
p4546
I153
sS'newsweek'
p4547
I10
sS'discounts'
p4548
I14
sS'8969'
p4549
I36
sS'83774'
p4550
I12
sS'eur'
p4551
I8
sS'turbonet'
p4552
I13
sS'closed'
p4553
I6
sS'edu'
p4554
I8
sS'emaii'
p4555
I2
sS'cyclops'
p4556
I10
sS'blocked'
p4557
I4
sS'email'
p4558
I335
sS'unbelieveable'
p4559
I38
sS'bought'
p4560
I17
sS'stoutly'
p4561
I14
sS'ends'
p4562
I71
sS'alium'
p4563
I26
sS'720'
p4564
I19
sS'anonymously'
p4565
I15
sS'importance'
p4566
I15
sS'missing'
p4567
I19
sS'deliver'
p4568
I60
sS'fooled'
p4569
I12
sS'embarrassment'
p4570
I7
sS'job'
p4571
I71
sS'joe'
p4572
I6
sS'merry'
p4573
I88
sS'viia'
p4574
I22
sS'approval'
p4575
I118
sS'boss'
p4576
I9
sS'xaxft'
p4577
I16
sS'david'
p4578
I9
sS'association'
p4579
I7
sS'instant'
p4580
I59
sS'joke'
p4581
I40
sS'invited'
p4582
I42
sS'elnramgnet'
p4583
I8
sS'recorders'
p4584
I24
sS'equal'
p4585
I58
sS'drug'
p4586
I29
sS'gtsak'
p4587
I2
sS'etc'
p4588
I59
sS'deter'
p4589
I7
sS'harvard'
p4590
I33
sS'lnbcer'
p4591
I11
sS'seencs'
p4592
I3
sS'expand'
p4593
I24
sS'stratton'
p4594
I23
sS'97438'
p4595
I3
sS'articulatory'
p4596
I16
sS'otherwise'
p4597
I13
sS'ck'
p4598
I473
sS'ci'
p4599
I48
sS'ch'
p4600
I56
sS'co'
p4601
I56
sS'cn'
p4602
I33
sS'cl'
p4603
I53
sS'cc'
p4604
I33
sS'ca'
p4605
I401
sS'gevalia'
p4606
I11
sS'ce'
p4607
I31
sS'cd'
p4608
I396
sS'franchise'
p4609
I30
sS'incest'
p4610
I2
sS'crafted'
p4611
I34
sS'tits'
p4612
I18
sS'cs'
p4613
I19
sS'kings'
p4614
I36
sS'cohere'
p4615
I22
sS'rpm'
p4616
I41
sS'earning'
p4617
I2
sS'cu'
p4618
I88
sS'600'
p4619
I101
sS'peniss'
p4620
I11
sS'neeeded'
p4621
I10
sS'mailman'
p4622
I21
sS'cameras'
p4623
I108
sS'exposure'
p4624
I32
sS'tremendous'
p4625
I23
sS'copier'
p4626
I72
sS'copies'
p4627
I10
sS'tombrandon'
p4628
I21
sS'nurses'
p4629
I2
sS'735'
p4630
I12
sS'treat'
p4631
I136
sS'worldexpo'
p4632
I45
sS'powerh'
p4633
I19
sS'proposal'
p4634
I139
sS'curtail'
p4635
I14
sS'anomaly'
p4636
I5
sS'2001'
p4637
I2
sS'remedies'
p4638
I5
sS'dfvht'
p4639
I29
sS'penny'
p4640
I700
sS'confidentail'
p4641
I57
sS'eally'
p4642
I12
sS'received'
p4643
I59
sS'coxr'
p4644
I47
sS'joy'
p4645
I48
sS'listing'
p4646
I33
sS'mrtg'
p4647
I12
sS'al'
p4648
I17
sS'stationer'
p4649
I76
sS'spaniel'
p4650
I16
sS'watches'
p4651
I107
sS'suspension'
p4652
I123
sS'nuptial'
p4653
I21
sS'prescription'
p4654
I303
sS'lgw'
p4655
I9
sS'spain'
p4656
I195
sS'desparately'
p4657
I61
sS'homes'
p4658
I133
sS'prospect'
p4659
I14
sS'laser'
p4660
I95
sS'discretely'
p4661
I7
sS'rom'
p4662
I3
sS'rbv'
p4663
I2
sS'corrigendum'
p4664
I12
sS'cvs'
p4665
I4
sS'value'
p4666
I49
sS'choices'
p4667
I41
sS'will'
p4668
I1035
sS'movers'
p4669
I135
sS'stockalert'
p4670
I85
sS'dude'
p4671
I8
sS'wild'
p4672
I31
sS'balance'
p4673
I210
sS'bathtub'
p4674
I34
sS'uacp'
p4675
I42
sS'dad'
p4676
I37
sS'jehovah'
p4677
I10
sS've'
p4678
I405
sS'resident'
p4679
I3
sS'vi'
p4680
I50
sS'wardrobes'
p4681
I10
sS'vl'
p4682
I135
sS'site'
p4683
I557
sS'alive'
p4684
I4
sS'procedure'
p4685
I19
sS'vp'
p4686
I21
sS'vr'
p4687
I15
sS'lonely'
p4688
I33
sS'5886'
p4689
I50
sS'cowgirls'
p4690
I3
sS'lifetime'
p4691
I52
sS'partner'
p4692
I176
sS'conserve'
p4693
I12
sS'waanmdp'
p4694
I192
sS'capture'
p4695
I17
sS'cinm'
p4696
I11
sS'imzccexvwra'
p4697
I14
sS'generic'
p4698
I133
sS'vocable'
p4699
I98
sS'administration'
p4700
I7
sS'pussies'
p4701
I7
sS'sondage'
p4702
I99
sS'jenna'
p4703
I7
sS'member'
p4704
I196
sS'toshop'
p4705
I2
sS'28940'
p4706
I16
sS'ybuaw'
p4707
I24
sS'ription'
p4708
I3
sS'perscription'
p4709
I19
sS'largest'
p4710
I57
sS'inch'
p4711
I97
sS'party'
p4712
I11
sS'serif'
p4713
I1
sS'gets'
p4714
I17
sS'stealthstock'
p4715
I58
sS'agaiin'
p4716
I16
sS'unimaginable'
p4717
I7
sS'unconscionable'
p4718
I8
sS'balk'
p4719
I2
sS'teenage'
p4720
I2
sS'xania'
p4721
I9
sS'iow'
p4722
I3
sS'premiere'
p4723
I1
sS'pha'
p4724
I73
sS'drink'
p4725
I40
sS'fetish'
p4726
I24
sS'automation'
p4727
I8
sS'ion'
p4728
I10
sS'recommendations'
p4729
I138
sS'takers'
p4730
I3
sS'yoou'
p4731
I65
sS'arrowhead'
p4732
I10
sS'vcsc'
p4733
I68
sS'soldout'
p4734
I23
sS'identity'
p4735
I266
sS'hepatitis'
p4736
I16
sS'off'
p4737
I849
sS'valerie'
p4738
I7
sS'nestor'
p4739
I9
sS'i'
I1406
sS'builder'
p4740
I18
sS'49'
p4741
I7
sS'well'
p4742
I39
sS'kslkbkcrbavoc'
p4743
I8
sS'declamation'
p4744
I6
sS'antonio'
p4745
I16
sS'thought'
p4746
I44
sS'pda'
p4747
I76
sS'adwords'
p4748
I19
sS'diphtheria'
p4749
I14
sS'position'
p4750
I43
sS'diversify'
p4751
I6
sS'muscle'
p4752
I35
sS'directly'
p4753
I7
sS'iagra'
p4754
I57
sS'aylesbgry'
p4755
I15
sS'less'
p4756
I139
sS'42'
p4757
I72
sS'executive'
p4758
I14
sS'obtain'
p4759
I11
sS'biometrika'
p4760
I14
sS'trust'
p4761
I17
sS'books'
p4762
I7
sS'virtual'
p4763
I18
sS'dooming'
p4764
I11
sS'skill'
p4765
I11
sS'duplications'
p4766
I14
sS'phamacies'
p4767
I5
sS'spells'
p4768
I8
sS'adv'
p4769
I291
sS'web'
p4770
I570
sS'4704'
p4771
I5
sS'shovvroom'
p4772
I26
sS'wed'
p4773
I87
sS'mortgagefkzqeljhyno'
p4774
I5
sS'abdv'
p4775
I192
sS'supply'
p4776
I52
sS'tadalafil'
p4777
I77
sS'patricia'
p4778
I3
sS'knew'
p4779
I10
sS'realize'
p4780
I36
sS'288'
p4781
I70
sS'pyroxene'
p4782
I26
sS'ssale'
p4783
I24
sS'viarga'
p4784
I8
sS'prozacs'
p4785
I10
sS'citizen'
p4786
I46
sS'usage'
p4787
I47
sS'ado'
p4788
I16
sS'sense'
p4789
I17
sS'makees'
p4790
I17
sS'smart'
p4791
I176
sS'details'
p4792
I111
sS'wining'
p4793
I29
sS'wont'
p4794
I3
sS'tests'
p4795
I30
sS'vaio'
p4796
I1
sS'government'
p4797
I378
sS'checking'
p4798
I6
sS'reamer'
p4799
I93
sS'okaro'
p4800
I46
sS'dowlnoad'
p4801
I16
sS'haul'
p4802
I21
sS'five'
p4803
I11
sS'know'
p4804
I590
sS'desk'
p4805
I54
sS'econommize'
p4806
I34
sS'immediately'
p4807
I261
sS'password'
p4808
I70
sS'dlos'
p4809
I34
sS'offerings'
p4810
I22
sS'lincoln'
p4811
I14
sS'incredibly'
p4812
I37
sS'necessary'
p4813
I44
sS'like'
p4814
I330
sS'success'
p4815
I243
sS'highlighted'
p4816
I25
sS'tussioneex'
p4817
I56
sS'ordinator'
p4818
I42
sS'candy'
p4819
I10
sS'loses'
p4820
I21
sS'alkali'
p4821
I9
sS'0600'
p4822
I56
sS'worrk'
p4823
I17
sS'payments'
p4824
I62
sS'clutch'
p4825
I2
sS'pricedstocks'
p4826
I93
sS'chick'
p4827
I47
sS'works'
p4828
I171
sS'soft'
p4829
I433
sS'7893'
p4830
I8
sS'italian'
p4831
I55
sS'shed'
p4832
I2
sS'because'
p4833
I53
sS'liquidation'
p4834
I55
sS'meler'
p4835
I36
sS'vortices'
p4836
I12
sS'personalized'
p4837
I1
sS'linux'
p4838
I95
sS'phentrimine'
p4839
I18
sS'druuugs'
p4840
I6
sS'hair'
p4841
I153
sS'majestic'
p4842
I8
sS'macromedia'
p4843
I85
sS'growth'
p4844
I723
sS'export'
p4845
I122
sS'110'
p4846
I46
sS'113'
p4847
I43
sS'computers'
p4848
I23
sS'home'
p4849
I719
sS'wallstreet'
p4850
I48
sS'refill'
p4851
I83
sS'recognition'
p4852
I29
sS'storezone'
p4853
I33
sS'est'
p4854
I10
sS'focused'
p4855
I5
sS'bet'
p4856
I34
sS'promotion'
p4857
I82
sS'avoid'
p4858
I5
sS'75994658'
p4859
I29
sS'does'
p4860
I69
sS'passion'
p4861
I5
sS'guia'
p4862
I31
sS'happend'
p4863
I47
sS'tasarruf'
p4864
I36
sS'cif'
p4865
I11
sS'leader'
p4866
I246
sS'regain'
p4867
I6
sS'ability'
p4868
I20
sS'blowing'
p4869
I18
sS'schedule'
p4870
I11
sS'selecting'
p4871
I65
sS'mitt'
p4872
I6
sS'zuyw'
p4873
I26
sS'mobile'
p4874
I419
sS'alumni'
p4875
I122
sS'slut'
p4876
I3
sS'frohe'
p4877
I88
sS'drrugs'
p4878
I15
sS'pressure'
p4879
I116
sS'host'
p4880
I12
sS'expire'
p4881
I12
sS'yazilimlari'
p4882
I50
sS'surprlsed'
p4883
I7
sS'obed'
p4884
I32
sS'seagate'
p4885
I70
sS'loans'
p4886
I52
sS'unchangeable'
p4887
I14
sS'ciiallis'
p4888
I21
sS'panel'
p4889
I20
sS'vuitton'
p4890
I18
sS'movles'
p4891
I8
sS'about'
p4892
I1037
sS'dhfeo'
p4893
I4
sS'engines'
p4894
I102
sS'uregent'
p4895
I164
sS'freedom'
p4896
I38
sS'nde'
p4897
I36
sS'harder'
p4898
I6
sS'shipping'
p4899
I209
sS'surge'
p4900
I77
sS'stamp'
p4901
I16
sS'statement'
p4902
I35
sS'estore'
p4903
I14
sS'limitado'
p4904
I2
sS'airlock'
p4905
I6
sS'introduced'
p4906
I17
sS'create'
p4907
I22
sS'software'
p4908
I2041
sS'aesksgdxg'
p4909
I94
sS'equally'
p4910
I18
sS'alliance'
p4911
I98
sS'letters'
p4912
I6
sS'final'
p4913
I63
sS'owe'
p4914
I19
sS'tight'
p4915
I2
sS'lenght'
p4916
I8
sS'washington'
p4917
I53
sS'eo'
p4918
I19
sS'getting'
p4919
I322
sS'canaan'
p4920
I16
sS'chronic'
p4921
I41
sS'doesnt'
p4922
I65
sS'brush'
p4923
I6
sS'singing'
p4924
I9
sS'registration'
p4925
I29
sS'scanner'
p4926
I47
sS'firee'
p4927
I4
sS'backups'
p4928
I4
sS'strategy'
p4929
I33
sS'oniine'
p4930
I9
sS'igrejas'
p4931
I2
sS'wakker'
p4932
I36
sS'clalis'
p4933
I6
sS'additional'
p4934
I9
sS'val'
p4935
I45
sS'rivals'
p4936
I19
sS'transfer'
p4937
I61
sS'rcp'
p4938
I135
sS'secret'
p4939
I286
sS'fabuklous'
p4940
I7
sS'smoothing'
p4941
I19
sS'stamina'
p4942
I46
sS'inl'
p4943
I47
sS'pa'
p4944
I41
sS'xanaa'
p4945
I30
sS'heresy'
p4946
I10
sS'dynamite'
p4947
I4
sS'yrs'
p4948
I32
sS'ejaculation'
p4949
I107
sS'naturally'
p4950
I78
sS'bux'
p4951
I6
sS'receipt'
p4952
I84
sS'noel'
p4953
I88
sS'hr'
p4954
I14
sS'brand'
p4955
I82
sS'bitches'
p4956
I13
sS'but'
p4957
I212
sS'escrow'
p4958
I64
sS'delivery'
p4959
I453
sS'hi'
p4960
I471
sS'gain'
p4961
I238
sS'automated'
p4962
I59
sS'grate'
p4963
I22
sS'eas'
p4964
I37
sS'ear'
p4965
I98
sS'valuation'
p4966
I24
sS'he'
p4967
I143
sS'dilettantes'
p4968
I6
sS'coool'
p4969
I18
sS'made'
p4970
I186
sS'board'
p4971
I26
sS'calls'
p4972
I40
sS'annuities'
p4973
I16
sS'wish'
p4974
I68
sS'samsung'
p4975
I83
sS'authority'
p4976
I26
sS'po'
p4977
I16
sS'record'
p4978
I193
sS'below'
p4979
I118
sS'725'
p4980
I10
sS'datos'
p4981
I31
sS'rickets'
p4982
I25
sS'aramcy'
p4983
I17
sS'ncxb'
p4984
I32
sS'phentermine'
p4985
I81
sS'problem'
p4986
I86
sS'walter'
p4987
I61
sS'minutes'
p4988
I66
sS'display'
p4989
I97
sS'strengthens'
p4990
I195
sS'absentminded'
p4991
I4
sS'inx'
p4992
I16
sS'autodesk'
p4993
I29
sS'vlagra'
p4994
I65
sS'int'
p4995
I124
sS'vlagro'
p4996
I19
sS'brochures'
p4997
I13
sS'sexually'
p4998
I55
sS'durkee'
p4999
I16
sS'dialogue'
p5000
I4
sS'maroon'
p5001
I10
sS'festival'
p5002
I26
sS'erin'
p5003
I6
sS'beats'
p5004
I26
sS'replica'
p5005
I90
sS'vlagrr'
p5006
I19
sS'websites'
p5007
I20
sS'ink'
p5008
I373
sS'education'
p5009
I61
sS'identities'
p5010
I32
sS'medicaldirectory'
p5011
I55
sS'myg'
p5012
I16
sS'inc'
p5013
I158
sS'mcle'
p5014
I57
sS'mutual'
p5015
I124
sS'72020314'
p5016
I12
sS'48'
p5017
I98
sS'incredible'
p5018
I14
sS'47'
p5019
I65
sS'44'
p5020
I2
sS'45'
p5021
I83
sS'percent'
p5022
I92
sS'torrid'
p5023
I171
sS'40'
p5024
I161
sS'ep'
p5025
I9
sS'other'
p5026
I71
sS'ejym'
p5027
I39
sS'crummy'
p5028
I10
sS'quantities'
p5029
I47
sS'mass'
p5030
I38
sS'percents'
p5031
I5
sS'85'
p5032
I125
sS'shoot'
p5033
I27
sS'adam'
p5034
I25
sS'canada'
p5035
I74
sS'xxx'
p5036
I23
sS'star'
p5037
I9
sS'monday'
p5038
I111
sS'megga'
p5039
I17
sS'class'
p5040
I24
sS'lowe'
p5041
I3
sS'june'
p5042
I65
sS'bundle'
p5043
I41
sS'precision'
p5044
I315
sS'yjppppdz'
p5045
I9
sS'enlargement'
p5046
I8
sS'chance'
p5047
I189
sS'hcq'
p5048
I22
sS'undelivered'
p5049
I43
sS'patch'
p5050
I8
sS'tinydrive'
p5051
I92
sS'friends'
p5052
I116
sS'sparkasse'
p5053
I9
sS'squeal'
p5054
I12
sS'extraa'
p5055
I17
sS'validation'
p5056
I34
sS'ecss'
p5057
I6
sS'tigow'
p5058
I2
sS'emery'
p5059
I12
sS'junho'
p5060
I30
sS'original'
p5061
I6
sS'472'
p5062
I14
sS'inset'
p5063
I54
sS'pierson'
p5064
I12
sS'status'
p5065
I38
sS'announces'
p5066
I65
sS'rebuilding'
p5067
I60
sS'silica'
p5068
I10
sS'edum'
p5069
I19
s.